      Line      Address       Opcode       Label           DisAssy         
       1    000           3180                    MOVLP 0x0                
       2    001           280F                    GOTO 0xF                 
       3    002           3FFF                    MOVWI -1[FSR1]           
       4    003           3FFF                    MOVWI -1[FSR1]           
       5    004           147E                    BSF 0x7E, 0x0            
       6    005           3180                    MOVLP 0x0                
       7    006           0020                    MOVLB 0x0                
       8    007           087F                    MOVF 0x7F, W             
       9    008           00F0                    MOVWF 0x70               
      10    009           2E04                    GOTO 0x604               
      11    00A           0870                    MOVF 0x70, W             
      12    00B           0020                    MOVLB 0x0                
      13    00C           00FF                    MOVWF 0x7F               
      14    00D           107E                    BCF 0x7E, 0x0            
      15    00E           0009                    RETFIE                   
      16    00F           3180                    MOVLP 0x0                
      17    010           2811                    GOTO 0x11                
      18    011           01FB                    CLRF 0x7B                
      19    012           01FC                    CLRF 0x7C                
      20    013           3058                    MOVLW 0x58               
      21    014           0084                    MOVWF FSR0               
      22    015           3000                    MOVLW 0x0                
      23    016           0085                    MOVWF FSR0H              
      24    017           300F                    MOVLW 0xF                
      25    018           3185                    MOVLP 0x5                
      26    019           2567                    CALL 0x567               
      27    01A           3180                    MOVLP 0x0                
      28    01B           30A0                    MOVLW 0xA0               
      29    01C           0084                    MOVWF FSR0               
      30    01D           3000                    MOVLW 0x0                
      31    01E           0085                    MOVWF FSR0H              
      32    01F           3050                    MOVLW 0x50               
      33    020           3185                    MOVLP 0x5                
      34    021           2567                    CALL 0x567               
      35    022           3180                    MOVLP 0x0                
      36    023           3020                    MOVLW 0x20               
      37    024           0084                    MOVWF FSR0               
      38    025           3001                    MOVLW 0x1                
      39    026           0085                    MOVWF FSR0H              
      40    027           3020                    MOVLW 0x20               
      41    028           3185                    MOVLP 0x5                
      42    029           2567                    CALL 0x567               
      43    02A           107E                    BCF 0x7E, 0x0            
      44    02B           0020                    MOVLB 0x0                
      45    02C           3184                    MOVLP 0x4                
      46    02D           2C6C                    GOTO 0x46C               
      47    02E           00F8                    MOVWF 0x78               
      48    02F           01F9                    CLRF 0x79                
      49    030           01FA                    CLRF 0x7A                
      50    031           01F4                    CLRF 0x74                
      51    032           01F5                    CLRF 0x75                
      52    033           01F6                    CLRF 0x76                
      53    034           01F7                    CLRF 0x77                
      54    035           29E8                    GOTO 0x1E8               
      55    036           3001                    MOVLW 0x1                
      56    037           0020                    MOVLB 0x0                
      57    038           00A0                    MOVWF 0x20               
      58    039           0820                    MOVF 0x20, W             
      59    03A           0021                    MOVLB 0x1                
      60    03B           00A0                    MOVWF 0x20               
      61    03C           0878                    MOVF 0x78, W             
      62    03D           3E03                    ADDLW 0x3                
      63    03E           0086                    MOVWF FSR1               
      64    03F           0187                    CLRF FSR1H               
      65    040           0801                    MOVF INDF1, W            
      66    041           0020                    MOVLB 0x0                
      67    042           00A0                    MOVWF 0x20               
      68    043           01A1                    CLRF 0x21                
      69    044           0878                    MOVF 0x78, W             
      70    045           3E02                    ADDLW 0x2                
      71    046           0086                    MOVWF FSR1               
      72    047           0187                    CLRF FSR1H               
      73    048           0801                    MOVF INDF1, W            
      74    049           00A2                    MOVWF 0x22               
      75    04A           01A3                    CLRF 0x23                
      76    04B           0822                    MOVF 0x22, W             
      77    04C           00A3                    MOVWF 0x23               
      78    04D           01A2                    CLRF 0x22                
      79    04E           0820                    MOVF 0x20, W             
      80    04F           0422                    IORWF 0x22, W            
      81    050           00F9                    MOVWF 0x79               
      82    051           0821                    MOVF 0x21, W             
      83    052           0423                    IORWF 0x23, W            
      84    053           00FA                    MOVWF 0x7A               
      85    054           3006                    MOVLW 0x6                
      86    055           027A                    SUBWF 0x7A, W            
      87    056           3000                    MOVLW 0x0                
      88    057           1903                    BTFSC STATUS, 0x2        
      89    058           0279                    SUBWF 0x79, W            
      90    059           1803                    BTFSC STATUS, 0x0        
      91    05A           285E                    GOTO 0x5E                
      92    05B           0021                    MOVLB 0x1                
      93    05C           01A1                    CLRF 0x21                
      94    05D           286E                    GOTO 0x6E                
      95    05E           0878                    MOVF 0x78, W             
      96    05F           0086                    MOVWF FSR1               
      97    060           0187                    CLRF FSR1H               
      98    061           3F42                    MOVIW 2[FSR1]            
      99    062           0020                    MOVLB 0x0                
     100    063           00DD                    MOVWF 0x5D               
     101    064           0878                    MOVF 0x78, W             
     102    065           0086                    MOVWF FSR1               
     103    066           0187                    CLRF FSR1H               
     104    067           3F43                    MOVIW 3[FSR1]            
     105    068           00DC                    MOVWF 0x5C               
     106    069           3001                    MOVLW 0x1                
     107    06A           00A0                    MOVWF 0x20               
     108    06B           0820                    MOVF 0x20, W             
     109    06C           0021                    MOVLB 0x1                
     110    06D           00A1                    MOVWF 0x21               
     111    06E           3002                    MOVLW 0x2                
     112    06F           0020                    MOVLB 0x0                
     113    070           00A0                    MOVWF 0x20               
     114    071           0820                    MOVF 0x20, W             
     115    072           00FB                    MOVWF 0x7B               
     116    073           01E4                    CLRF 0x64                
     117    074           3001                    MOVLW 0x1                
     118    075           00A0                    MOVWF 0x20               
     119    076           0820                    MOVF 0x20, W             
     120    077           00E5                    MOVWF 0x65               
     121    078           0008                    RETURN                   
     122    079           01F9                    CLRF 0x79                
     123    07A           01FA                    CLRF 0x7A                
     124    07B           3000                    MOVLW 0x0                
     125    07C           027A                    SUBWF 0x7A, W            
     126    07D           3010                    MOVLW 0x10               
     127    07E           1903                    BTFSC STATUS, 0x2        
     128    07F           0279                    SUBWF 0x79, W            
     129    080           1803                    BTFSC STATUS, 0x0        
     130    081           289D                    GOTO 0x9D                
     131    082           0879                    MOVF 0x79, W             
     132    083           3E02                    ADDLW 0x2                
     133    084           0778                    ADDWF 0x78, W            
     134    085           0020                    MOVLB 0x0                
     135    086           00A0                    MOVWF 0x20               
     136    087           0820                    MOVF 0x20, W             
     137    088           0086                    MOVWF FSR1               
     138    089           0187                    CLRF FSR1H               
     139    08A           0801                    MOVF INDF1, W            
     140    08B           00A1                    MOVWF 0x21               
     141    08C           0879                    MOVF 0x79, W             
     142    08D           3EE0                    ADDLW 0xE0               
     143    08E           0086                    MOVWF FSR1               
     144    08F           0187                    CLRF FSR1H               
     145    090           0821                    MOVF 0x21, W             
     146    091           0081                    MOVWF INDF1              
     147    092           3001                    MOVLW 0x1                
     148    093           07F9                    ADDWF 0x79, F            
     149    094           3000                    MOVLW 0x0                
     150    095           3DFA                    ADDWFC 0x7A, F           
     151    096           3000                    MOVLW 0x0                
     152    097           027A                    SUBWF 0x7A, W            
     153    098           3010                    MOVLW 0x10               
     154    099           1903                    BTFSC STATUS, 0x2        
     155    09A           0279                    SUBWF 0x79, W            
     156    09B           1C03                    BTFSS STATUS, 0x0        
     157    09C           2882                    GOTO 0x82                
     158    09D           3002                    MOVLW 0x2                
     159    09E           0020                    MOVLB 0x0                
     160    09F           00A0                    MOVWF 0x20               
     161    0A0           0820                    MOVF 0x20, W             
     162    0A1           0021                    MOVLB 0x1                
     163    0A2           00A0                    MOVWF 0x20               
     164    0A3           3001                    MOVLW 0x1                
     165    0A4           0020                    MOVLB 0x0                
     166    0A5           00A0                    MOVWF 0x20               
     167    0A6           0820                    MOVF 0x20, W             
     168    0A7           0021                    MOVLB 0x1                
     169    0A8           00A1                    MOVWF 0x21               
     170    0A9           3002                    MOVLW 0x2                
     171    0AA           0020                    MOVLB 0x0                
     172    0AB           00A0                    MOVWF 0x20               
     173    0AC           0820                    MOVF 0x20, W             
     174    0AD           00FB                    MOVWF 0x7B               
     175    0AE           01E4                    CLRF 0x64                
     176    0AF           3001                    MOVLW 0x1                
     177    0B0           00A0                    MOVWF 0x20               
     178    0B1           0820                    MOVF 0x20, W             
     179    0B2           00E5                    MOVWF 0x65               
     180    0B3           0008                    RETURN                   
     181    0B4           3014                    MOVLW 0x14               
     182    0B5           0020                    MOVLB 0x0                
     183    0B6           00A0                    MOVWF 0x20               
     184    0B7           0820                    MOVF 0x20, W             
     185    0B8           0021                    MOVLB 0x1                
     186    0B9           00A0                    MOVWF 0x20               
     187    0BA           3003                    MOVLW 0x3                
     188    0BB           0020                    MOVLB 0x0                
     189    0BC           00A0                    MOVWF 0x20               
     190    0BD           0820                    MOVF 0x20, W             
     191    0BE           0021                    MOVLB 0x1                
     192    0BF           00A1                    MOVWF 0x21               
     193    0C0           0820                    MOVF 0x20, W             
     194    0C1           0721                    ADDWF 0x21, W            
     195    0C2           0020                    MOVLB 0x0                
     196    0C3           00A0                    MOVWF 0x20               
     197    0C4           01A1                    CLRF 0x21                
     198    0C5           0DA1                    RLF 0x21, F              
     199    0C6           0820                    MOVF 0x20, W             
     200    0C7           00F6                    MOVWF 0x76               
     201    0C8           0821                    MOVF 0x21, W             
     202    0C9           00F7                    MOVWF 0x77               
     203    0CA           01F9                    CLRF 0x79                
     204    0CB           01FA                    CLRF 0x7A                
     205    0CC           3000                    MOVLW 0x0                
     206    0CD           027A                    SUBWF 0x7A, W            
     207    0CE           3010                    MOVLW 0x10               
     208    0CF           1903                    BTFSC STATUS, 0x2        
     209    0D0           0279                    SUBWF 0x79, W            
     210    0D1           1803                    BTFSC STATUS, 0x0        
     211    0D2           2918                    GOTO 0x118               
     212    0D3           085D                    MOVF 0x5D, W             
     213    0D4           00F2                    MOVWF 0x72               
     214    0D5           085C                    MOVF 0x5C, W             
     215    0D6           00F1                    MOVWF 0x71               
     216    0D7           3185                    MOVLP 0x5                
     217    0D8           2531                    CALL 0x531               
     218    0D9           3180                    MOVLP 0x0                
     219    0DA           0872                    MOVF 0x72, W             
     220    0DB           00F5                    MOVWF 0x75               
     221    0DC           0871                    MOVF 0x71, W             
     222    0DD           00F4                    MOVWF 0x74               
     223    0DE           0875                    MOVF 0x75, W             
     224    0DF           0020                    MOVLB 0x0                
     225    0E0           00A0                    MOVWF 0x20               
     226    0E1           0879                    MOVF 0x79, W             
     227    0E2           3E02                    ADDLW 0x2                
     228    0E3           3EA0                    ADDLW 0xA0               
     229    0E4           0086                    MOVWF FSR1               
     230    0E5           0187                    CLRF FSR1H               
     231    0E6           0820                    MOVF 0x20, W             
     232    0E7           0081                    MOVWF INDF1              
     233    0E8           0874                    MOVF 0x74, W             
     234    0E9           00A0                    MOVWF 0x20               
     235    0EA           0879                    MOVF 0x79, W             
     236    0EB           3E03                    ADDLW 0x3                
     237    0EC           3EA0                    ADDLW 0xA0               
     238    0ED           0086                    MOVWF FSR1               
     239    0EE           0187                    CLRF FSR1H               
     240    0EF           0820                    MOVF 0x20, W             
     241    0F0           0081                    MOVWF INDF1              
     242    0F1           3001                    MOVLW 0x1                
     243    0F2           07DC                    ADDWF 0x5C, F            
     244    0F3           3000                    MOVLW 0x0                
     245    0F4           3DDD                    ADDWFC 0x5D, F           
     246    0F5           0879                    MOVF 0x79, W             
     247    0F6           3E02                    ADDLW 0x2                
     248    0F7           3EA0                    ADDLW 0xA0               
     249    0F8           0086                    MOVWF FSR1               
     250    0F9           0187                    CLRF FSR1H               
     251    0FA           0801                    MOVF INDF1, W            
     252    0FB           00A0                    MOVWF 0x20               
     253    0FC           01A1                    CLRF 0x21                
     254    0FD           0820                    MOVF 0x20, W             
     255    0FE           07F6                    ADDWF 0x76, F            
     256    0FF           0821                    MOVF 0x21, W             
     257    100           3DF7                    ADDWFC 0x77, F           
     258    101           0879                    MOVF 0x79, W             
     259    102           3E03                    ADDLW 0x3                
     260    103           3EA0                    ADDLW 0xA0               
     261    104           0086                    MOVWF FSR1               
     262    105           0187                    CLRF FSR1H               
     263    106           0801                    MOVF INDF1, W            
     264    107           00A0                    MOVWF 0x20               
     265    108           01A1                    CLRF 0x21                
     266    109           0820                    MOVF 0x20, W             
     267    10A           07F6                    ADDWF 0x76, F            
     268    10B           0821                    MOVF 0x21, W             
     269    10C           3DF7                    ADDWFC 0x77, F           
     270    10D           3002                    MOVLW 0x2                
     271    10E           07F9                    ADDWF 0x79, F            
     272    10F           3000                    MOVLW 0x0                
     273    110           3DFA                    ADDWFC 0x7A, F           
     274    111           3000                    MOVLW 0x0                
     275    112           027A                    SUBWF 0x7A, W            
     276    113           3010                    MOVLW 0x10               
     277    114           1903                    BTFSC STATUS, 0x2        
     278    115           0279                    SUBWF 0x79, W            
     279    116           1C03                    BTFSS STATUS, 0x0        
     280    117           28D3                    GOTO 0xD3                
     281    118           0877                    MOVF 0x77, W             
     282    119           00A0                    MOVWF 0x20               
     283    11A           0820                    MOVF 0x20, W             
     284    11B           0021                    MOVLB 0x1                
     285    11C           00B2                    MOVWF 0x32               
     286    11D           0876                    MOVF 0x76, W             
     287    11E           0020                    MOVLB 0x0                
     288    11F           00A0                    MOVWF 0x20               
     289    120           0820                    MOVF 0x20, W             
     290    121           0021                    MOVLB 0x1                
     291    122           00B3                    MOVWF 0x33               
     292    123           3014                    MOVLW 0x14               
     293    124           0020                    MOVLB 0x0                
     294    125           00A0                    MOVWF 0x20               
     295    126           0820                    MOVF 0x20, W             
     296    127           00FB                    MOVWF 0x7B               
     297    128           01E4                    CLRF 0x64                
     298    129           3001                    MOVLW 0x1                
     299    12A           00A0                    MOVWF 0x20               
     300    12B           0820                    MOVF 0x20, W             
     301    12C           00E5                    MOVWF 0x65               
     302    12D           0008                    RETURN                   
     303    12E           3004                    MOVLW 0x4                
     304    12F           0020                    MOVLB 0x0                
     305    130           00A0                    MOVWF 0x20               
     306    131           0820                    MOVF 0x20, W             
     307    132           0021                    MOVLB 0x1                
     308    133           00A0                    MOVWF 0x20               
     309    134           3001                    MOVLW 0x1                
     310    135           0020                    MOVLB 0x0                
     311    136           00A0                    MOVWF 0x20               
     312    137           0820                    MOVF 0x20, W             
     313    138           0021                    MOVLB 0x1                
     314    139           00A1                    MOVWF 0x21               
     315    13A           3002                    MOVLW 0x2                
     316    13B           0020                    MOVLB 0x0                
     317    13C           00A0                    MOVWF 0x20               
     318    13D           0820                    MOVF 0x20, W             
     319    13E           00FB                    MOVWF 0x7B               
     320    13F           01E4                    CLRF 0x64                
     321    140           3001                    MOVLW 0x1                
     322    141           00A0                    MOVWF 0x20               
     323    142           0820                    MOVF 0x20, W             
     324    143           00E5                    MOVWF 0x65               
     325    144           3001                    MOVLW 0x1                
     326    145           00A0                    MOVWF 0x20               
     327    146           0820                    MOVF 0x20, W             
     328    147           00E0                    MOVWF 0x60               
     329    148           0008                    RETURN                   
     330    149           3005                    MOVLW 0x5                
     331    14A           0020                    MOVLB 0x0                
     332    14B           00A0                    MOVWF 0x20               
     333    14C           0820                    MOVF 0x20, W             
     334    14D           0021                    MOVLB 0x1                
     335    14E           00A0                    MOVWF 0x20               
     336    14F           3001                    MOVLW 0x1                
     337    150           0020                    MOVLB 0x0                
     338    151           00A0                    MOVWF 0x20               
     339    152           0820                    MOVF 0x20, W             
     340    153           0021                    MOVLB 0x1                
     341    154           00A1                    MOVWF 0x21               
     342    155           3002                    MOVLW 0x2                
     343    156           0020                    MOVLB 0x0                
     344    157           00A0                    MOVWF 0x20               
     345    158           0820                    MOVF 0x20, W             
     346    159           00FB                    MOVWF 0x7B               
     347    15A           01E4                    CLRF 0x64                
     348    15B           3001                    MOVLW 0x1                
     349    15C           00A0                    MOVWF 0x20               
     350    15D           0820                    MOVF 0x20, W             
     351    15E           00E5                    MOVWF 0x65               
     352    15F           3001                    MOVLW 0x1                
     353    160           00A0                    MOVWF 0x20               
     354    161           0820                    MOVF 0x20, W             
     355    162           00DF                    MOVWF 0x5F               
     356    163           0008                    RETURN                   
     357    164           3006                    MOVLW 0x6                
     358    165           0020                    MOVLB 0x0                
     359    166           00A0                    MOVWF 0x20               
     360    167           0820                    MOVF 0x20, W             
     361    168           0021                    MOVLB 0x1                
     362    169           00A0                    MOVWF 0x20               
     363    16A           3001                    MOVLW 0x1                
     364    16B           0020                    MOVLB 0x0                
     365    16C           00A0                    MOVWF 0x20               
     366    16D           0820                    MOVF 0x20, W             
     367    16E           0021                    MOVLB 0x1                
     368    16F           00A1                    MOVWF 0x21               
     369    170           3002                    MOVLW 0x2                
     370    171           0020                    MOVLB 0x0                
     371    172           00A0                    MOVWF 0x20               
     372    173           0820                    MOVF 0x20, W             
     373    174           00FB                    MOVWF 0x7B               
     374    175           01E4                    CLRF 0x64                
     375    176           3001                    MOVLW 0x1                
     376    177           00A0                    MOVWF 0x20               
     377    178           0820                    MOVF 0x20, W             
     378    179           00E5                    MOVWF 0x65               
     379    17A           3001                    MOVLW 0x1                
     380    17B           00A0                    MOVWF 0x20               
     381    17C           0820                    MOVF 0x20, W             
     382    17D           00E1                    MOVWF 0x61               
     383    17E           0008                    RETURN                   
     384    17F           3007                    MOVLW 0x7                
     385    180           0020                    MOVLB 0x0                
     386    181           00A0                    MOVWF 0x20               
     387    182           0820                    MOVF 0x20, W             
     388    183           0021                    MOVLB 0x1                
     389    184           00A0                    MOVWF 0x20               
     390    185           3001                    MOVLW 0x1                
     391    186           0020                    MOVLB 0x0                
     392    187           00A0                    MOVWF 0x20               
     393    188           0820                    MOVF 0x20, W             
     394    189           0021                    MOVLB 0x1                
     395    18A           00A1                    MOVWF 0x21               
     396    18B           3002                    MOVLW 0x2                
     397    18C           0020                    MOVLB 0x0                
     398    18D           00A0                    MOVWF 0x20               
     399    18E           0820                    MOVF 0x20, W             
     400    18F           00FB                    MOVWF 0x7B               
     401    190           01E4                    CLRF 0x64                
     402    191           3001                    MOVLW 0x1                
     403    192           00A0                    MOVWF 0x20               
     404    193           0820                    MOVF 0x20, W             
     405    194           00E5                    MOVWF 0x65               
     406    195           3001                    MOVLW 0x1                
     407    196           00A0                    MOVWF 0x20               
     408    197           0820                    MOVF 0x20, W             
     409    198           00E2                    MOVWF 0x62               
     410    199           0008                    RETURN                   
     411    19A           3006                    MOVLW 0x6                
     412    19B           0020                    MOVLB 0x0                
     413    19C           00A0                    MOVWF 0x20               
     414    19D           0820                    MOVF 0x20, W             
     415    19E           0021                    MOVLB 0x1                
     416    19F           00A0                    MOVWF 0x20               
     417    1A0           3008                    MOVLW 0x8                
     418    1A1           0020                    MOVLB 0x0                
     419    1A2           00A0                    MOVWF 0x20               
     420    1A3           0820                    MOVF 0x20, W             
     421    1A4           0021                    MOVLB 0x1                
     422    1A5           00A1                    MOVWF 0x21               
     423    1A6           0020                    MOVLB 0x0                
     424    1A7           085D                    MOVF 0x5D, W             
     425    1A8           00A0                    MOVWF 0x20               
     426    1A9           0820                    MOVF 0x20, W             
     427    1AA           0021                    MOVLB 0x1                
     428    1AB           00A2                    MOVWF 0x22               
     429    1AC           0020                    MOVLB 0x0                
     430    1AD           085C                    MOVF 0x5C, W             
     431    1AE           00A0                    MOVWF 0x20               
     432    1AF           0820                    MOVF 0x20, W             
     433    1B0           0021                    MOVLB 0x1                
     434    1B1           00A3                    MOVWF 0x23               
     435    1B2           0823                    MOVF 0x23, W             
     436    1B3           0020                    MOVLB 0x0                
     437    1B4           00A0                    MOVWF 0x20               
     438    1B5           01A1                    CLRF 0x21                
     439    1B6           0021                    MOVLB 0x1                
     440    1B7           0822                    MOVF 0x22, W             
     441    1B8           0020                    MOVLB 0x0                
     442    1B9           00A2                    MOVWF 0x22               
     443    1BA           01A3                    CLRF 0x23                
     444    1BB           0021                    MOVLB 0x1                
     445    1BC           0820                    MOVF 0x20, W             
     446    1BD           0721                    ADDWF 0x21, W            
     447    1BE           0020                    MOVLB 0x0                
     448    1BF           00A4                    MOVWF 0x24               
     449    1C0           01A5                    CLRF 0x25                
     450    1C1           0DA5                    RLF 0x25, F              
     451    1C2           0822                    MOVF 0x22, W             
     452    1C3           0724                    ADDWF 0x24, W            
     453    1C4           00A6                    MOVWF 0x26               
     454    1C5           0823                    MOVF 0x23, W             
     455    1C6           3D25                    ADDWFC 0x25, W           
     456    1C7           00A7                    MOVWF 0x27               
     457    1C8           0820                    MOVF 0x20, W             
     458    1C9           0726                    ADDWF 0x26, W            
     459    1CA           00A8                    MOVWF 0x28               
     460    1CB           0821                    MOVF 0x21, W             
     461    1CC           3D27                    ADDWFC 0x27, W           
     462    1CD           00A9                    MOVWF 0x29               
     463    1CE           0828                    MOVF 0x28, W             
     464    1CF           00F9                    MOVWF 0x79               
     465    1D0           0829                    MOVF 0x29, W             
     466    1D1           00FA                    MOVWF 0x7A               
     467    1D2           087A                    MOVF 0x7A, W             
     468    1D3           00A0                    MOVWF 0x20               
     469    1D4           0820                    MOVF 0x20, W             
     470    1D5           0021                    MOVLB 0x1                
     471    1D6           00A4                    MOVWF 0x24               
     472    1D7           0879                    MOVF 0x79, W             
     473    1D8           0020                    MOVLB 0x0                
     474    1D9           00A0                    MOVWF 0x20               
     475    1DA           0820                    MOVF 0x20, W             
     476    1DB           0021                    MOVLB 0x1                
     477    1DC           00A5                    MOVWF 0x25               
     478    1DD           3006                    MOVLW 0x6                
     479    1DE           0020                    MOVLB 0x0                
     480    1DF           00A0                    MOVWF 0x20               
     481    1E0           0820                    MOVF 0x20, W             
     482    1E1           00FB                    MOVWF 0x7B               
     483    1E2           01E4                    CLRF 0x64                
     484    1E3           3001                    MOVLW 0x1                
     485    1E4           00A0                    MOVWF 0x20               
     486    1E5           0820                    MOVF 0x20, W             
     487    1E6           00E5                    MOVWF 0x65               
     488    1E7           0008                    RETURN                   
     489    1E8           0A78                    INCF 0x78, W             
     490    1E9           0086                    MOVWF FSR1               
     491    1EA           0187                    CLRF FSR1H               
     492    1EB           0801                    MOVF INDF1, W            
     493    1EC           3EFF                    ADDLW 0xFF               
     494    1ED           1C03                    BTFSS STATUS, 0x0        
     495    1EE           0008                    RETURN                   
     496    1EF           0084                    MOVWF FSR0               
     497    1F0           3008                    MOVLW 0x8                
     498    1F1           0204                    SUBWF FSR0, W            
     499    1F2           1803                    BTFSC STATUS, 0x0        
     500    1F3           0008                    RETURN                   
     501    1F4           3185                    MOVLP 0x5                
     502    1F5           3504                    LSLF FSR0, W             
     503    1F6           3E21                    ADDLW 0x21               
     504    1F7           0082                    MOVWF PCL                
     505    1F8           0008                    RETURN                   
     506    1F9           0020                    MOVLB 0x0                
     507    1FA           01CC                    CLRF 0x4C                
     508    1FB           01CD                    CLRF 0x4D                
     509    1FC           01D0                    CLRF 0x50                
     510    1FD           01D1                    CLRF 0x51                
     511    1FE           01CE                    CLRF 0x4E                
     512    1FF           01CF                    CLRF 0x4F                
     513    200           3020                    MOVLW 0x20               
     514    201           0086                    MOVWF FSR1               
     515    202           3001                    MOVLW 0x1                
     516    203           0087                    MOVWF FSR1H              
     517    204           302C                    MOVLW 0x2C               
     518    205           0084                    MOVWF FSR0               
     519    206           3000                    MOVLW 0x0                
     520    207           0085                    MOVWF FSR0H              
     521    208           3020                    MOVLW 0x20               
     522    209           00AA                    MOVWF 0x2A               
     523    20A           0016                    MOVIW FSR1++             
     524    20B           001A                    MOVWI FSR0++             
     525    20C           0BAA                    DECFSZ 0x2A, F           
     526    20D           2A0A                    GOTO 0x20A               
     527    20E           0863                    MOVF 0x63, W             
     528    20F           1903                    BTFSC STATUS, 0x2        
     529    210           0008                    RETURN                   
     530    211           01E3                    CLRF 0x63                
     531    212           01FC                    CLRF 0x7C                
     532    213           0021                    MOVLB 0x1                
     533    214           0842                    MOVF 0x42, W             
     534    215           0020                    MOVLB 0x0                
     535    216           00AA                    MOVWF 0x2A               
     536    217           01AB                    CLRF 0x2B                
     537    218           082A                    MOVF 0x2A, W             
     538    219           00CE                    MOVWF 0x4E               
     539    21A           082B                    MOVF 0x2B, W             
     540    21B           00CF                    MOVWF 0x4F               
     541    21C           01D0                    CLRF 0x50                
     542    21D           01D1                    CLRF 0x51                
     543    21E           084F                    MOVF 0x4F, W             
     544    21F           0251                    SUBWF 0x51, W            
     545    220           1D03                    BTFSS STATUS, 0x2        
     546    221           2A24                    GOTO 0x224               
     547    222           084E                    MOVF 0x4E, W             
     548    223           0250                    SUBWF 0x50, W            
     549    224           1803                    BTFSC STATUS, 0x0        
     550    225           2A3D                    GOTO 0x23D               
     551    226           0850                    MOVF 0x50, W             
     552    227           3E02                    ADDLW 0x2                
     553    228           3EC0                    ADDLW 0xC0               
     554    229           0086                    MOVWF FSR1               
     555    22A           0187                    CLRF FSR1H               
     556    22B           0801                    MOVF INDF1, W            
     557    22C           00AA                    MOVWF 0x2A               
     558    22D           0850                    MOVF 0x50, W             
     559    22E           3E2C                    ADDLW 0x2C               
     560    22F           0086                    MOVWF FSR1               
     561    230           0187                    CLRF FSR1H               
     562    231           082A                    MOVF 0x2A, W             
     563    232           0081                    MOVWF INDF1              
     564    233           0850                    MOVF 0x50, W             
     565    234           3EC0                    ADDLW 0xC0               
     566    235           0086                    MOVWF FSR1               
     567    236           0187                    CLRF FSR1H               
     568    237           0181                    CLRF INDF1               
     569    238           3001                    MOVLW 0x1                
     570    239           07D0                    ADDWF 0x50, F            
     571    23A           3000                    MOVLW 0x0                
     572    23B           3DD1                    ADDWFC 0x51, F           
     573    23C           2A1E                    GOTO 0x21E               
     574    23D           0021                    MOVLB 0x1                
     575    23E           01C0                    CLRF 0x40                
     576    23F           01C1                    CLRF 0x41                
     577    240           3055                    MOVLW 0x55               
     578    241           3185                    MOVLP 0x5                
     579    242           2560                    CALL 0x560               
     580    243           3181                    MOVLP 0x1                
     581    244           30AA                    MOVLW 0xAA               
     582    245           3185                    MOVLP 0x5                
     583    246           2560                    CALL 0x560               
     584    247           3181                    MOVLP 0x1                
     585    248           0020                    MOVLB 0x0                
     586    249           01D0                    CLRF 0x50                
     587    24A           01D1                    CLRF 0x51                
     588    24B           084F                    MOVF 0x4F, W             
     589    24C           0251                    SUBWF 0x51, W            
     590    24D           1D03                    BTFSS STATUS, 0x2        
     591    24E           2A51                    GOTO 0x251               
     592    24F           084E                    MOVF 0x4E, W             
     593    250           0250                    SUBWF 0x50, W            
     594    251           1803                    BTFSC STATUS, 0x0        
     595    252           2A61                    GOTO 0x261               
     596    253           0850                    MOVF 0x50, W             
     597    254           3E2C                    ADDLW 0x2C               
     598    255           0086                    MOVWF FSR1               
     599    256           0187                    CLRF FSR1H               
     600    257           0801                    MOVF INDF1, W            
     601    258           3185                    MOVLP 0x5                
     602    259           2560                    CALL 0x560               
     603    25A           3181                    MOVLP 0x1                
     604    25B           3001                    MOVLW 0x1                
     605    25C           0020                    MOVLB 0x0                
     606    25D           07D0                    ADDWF 0x50, F            
     607    25E           3000                    MOVLW 0x0                
     608    25F           3DD1                    ADDWFC 0x51, F           
     609    260           2A4B                    GOTO 0x24B               
     610    261           01D0                    CLRF 0x50                
     611    262           01D1                    CLRF 0x51                
     612    263           084E                    MOVF 0x4E, W             
     613    264           3EFE                    ADDLW 0xFE               
     614    265           00AA                    MOVWF 0x2A               
     615    266           30FF                    MOVLW 0xFF               
     616    267           3D4F                    ADDWFC 0x4F, W           
     617    268           00AB                    MOVWF 0x2B               
     618    269           082B                    MOVF 0x2B, W             
     619    26A           0251                    SUBWF 0x51, W            
     620    26B           1D03                    BTFSS STATUS, 0x2        
     621    26C           2A6F                    GOTO 0x26F               
     622    26D           082A                    MOVF 0x2A, W             
     623    26E           0250                    SUBWF 0x50, W            
     624    26F           1803                    BTFSC STATUS, 0x0        
     625    270           2A81                    GOTO 0x281               
     626    271           0850                    MOVF 0x50, W             
     627    272           3E2C                    ADDLW 0x2C               
     628    273           0086                    MOVWF FSR1               
     629    274           0187                    CLRF FSR1H               
     630    275           0801                    MOVF INDF1, W            
     631    276           00AA                    MOVWF 0x2A               
     632    277           01AB                    CLRF 0x2B                
     633    278           082A                    MOVF 0x2A, W             
     634    279           07CC                    ADDWF 0x4C, F            
     635    27A           082B                    MOVF 0x2B, W             
     636    27B           3DCD                    ADDWFC 0x4D, F           
     637    27C           3001                    MOVLW 0x1                
     638    27D           07D0                    ADDWF 0x50, F            
     639    27E           3000                    MOVLW 0x0                
     640    27F           3DD1                    ADDWFC 0x51, F           
     641    280           2A63                    GOTO 0x263               
     642    281           084E                    MOVF 0x4E, W             
     643    282           3EFE                    ADDLW 0xFE               
     644    283           3E2C                    ADDLW 0x2C               
     645    284           0086                    MOVWF FSR1               
     646    285           0187                    CLRF FSR1H               
     647    286           084D                    MOVF 0x4D, W             
     648    287           00AB                    MOVWF 0x2B               
     649    288           084C                    MOVF 0x4C, W             
     650    289           00AA                    MOVWF 0x2A               
     651    28A           082B                    MOVF 0x2B, W             
     652    28B           00AA                    MOVWF 0x2A               
     653    28C           01AB                    CLRF 0x2B                
     654    28D           082A                    MOVF 0x2A, W             
     655    28E           0601                    XORWF INDF1, W           
     656    28F           1D03                    BTFSS STATUS, 0x2        
     657    290           2ABE                    GOTO 0x2BE               
     658    291           084E                    MOVF 0x4E, W             
     659    292           3EFF                    ADDLW 0xFF               
     660    293           3E2C                    ADDLW 0x2C               
     661    294           0086                    MOVWF FSR1               
     662    295           0187                    CLRF FSR1H               
     663    296           0801                    MOVF INDF1, W            
     664    297           064C                    XORWF 0x4C, W            
     665    298           1D03                    BTFSS STATUS, 0x2        
     666    299           2ABE                    GOTO 0x2BE               
     667    29A           01D0                    CLRF 0x50                
     668    29B           01D1                    CLRF 0x51                
     669    29C           3000                    MOVLW 0x0                
     670    29D           0251                    SUBWF 0x51, W            
     671    29E           3020                    MOVLW 0x20               
     672    29F           1903                    BTFSC STATUS, 0x2        
     673    2A0           0250                    SUBWF 0x50, W            
     674    2A1           1803                    BTFSC STATUS, 0x0        
     675    2A2           2AB6                    GOTO 0x2B6               
     676    2A3           3045                    MOVLW 0x45               
     677    2A4           00AA                    MOVWF 0x2A               
     678    2A5           0850                    MOVF 0x50, W             
     679    2A6           3EA0                    ADDLW 0xA0               
     680    2A7           0086                    MOVWF FSR1               
     681    2A8           0187                    CLRF FSR1H               
     682    2A9           082A                    MOVF 0x2A, W             
     683    2AA           0081                    MOVWF INDF1              
     684    2AB           3001                    MOVLW 0x1                
     685    2AC           07D0                    ADDWF 0x50, F            
     686    2AD           3000                    MOVLW 0x0                
     687    2AE           3DD1                    ADDWFC 0x51, F           
     688    2AF           3000                    MOVLW 0x0                
     689    2B0           0251                    SUBWF 0x51, W            
     690    2B1           3020                    MOVLW 0x20               
     691    2B2           1903                    BTFSC STATUS, 0x2        
     692    2B3           0250                    SUBWF 0x50, W            
     693    2B4           1C03                    BTFSS STATUS, 0x0        
     694    2B5           2AA3                    GOTO 0x2A3               
     695    2B6           084E                    MOVF 0x4E, W             
     696    2B7           00AA                    MOVWF 0x2A               
     697    2B8           082A                    MOVF 0x2A, W             
     698    2B9           00F3                    MOVWF 0x73               
     699    2BA           302C                    MOVLW 0x2C               
     700    2BB           3180                    MOVLP 0x0                
     701    2BC           202E                    CALL 0x2E                
     702    2BD           0008                    RETURN                   
     703    2BE           30FC                    MOVLW 0xFC               
     704    2BF           3185                    MOVLP 0x5                
     705    2C0           2560                    CALL 0x560               
     706    2C1           0020                    MOVLB 0x0                
     707    2C2           082D                    MOVF 0x2D, W             
     708    2C3           00AA                    MOVWF 0x2A               
     709    2C4           082A                    MOVF 0x2A, W             
     710    2C5           0021                    MOVLB 0x1                
     711    2C6           00A0                    MOVWF 0x20               
     712    2C7           01A1                    CLRF 0x21                
     713    2C8           3002                    MOVLW 0x2                
     714    2C9           0020                    MOVLB 0x0                
     715    2CA           00AA                    MOVWF 0x2A               
     716    2CB           082A                    MOVF 0x2A, W             
     717    2CC           00FB                    MOVWF 0x7B               
     718    2CD           01E4                    CLRF 0x64                
     719    2CE           3001                    MOVLW 0x1                
     720    2CF           00AA                    MOVWF 0x2A               
     721    2D0           082A                    MOVF 0x2A, W             
     722    2D1           00E5                    MOVWF 0x65               
     723    2D2           0008                    RETURN                   
     724    2D3           0020                    MOVLB 0x0                
     725    2D4           1D91                    BTFSS PIR1, 0x3          
     726    2D5           0008                    RETURN                   
     727    2D6           0024                    MOVLB 0x4                
     728    2D7           1914                    BTFSC 0x14, 0x2          
     729    2D8           2AF6                    GOTO 0x2F6               
     730    2D9           1A94                    BTFSC 0x14, 0x5          
     731    2DA           2AE2                    GOTO 0x2E2               
     732    2DB           0811                    MOVF PIR1, W             
     733    2DC           0020                    MOVLB 0x0                
     734    2DD           00D2                    MOVWF 0x52               
     735    2DE           0852                    MOVF 0x52, W             
     736    2DF           00D3                    MOVWF 0x53               
     737    2E0           0024                    MOVLB 0x4                
     738    2E1           1615                    BSF TMR0, 0x4            
     739    2E2           1E94                    BTFSS 0x14, 0x5          
     740    2E3           2AF6                    GOTO 0x2F6               
     741    2E4           1F95                    BTFSS TMR0, 0x7          
     742    2E5           2AEE                    GOTO 0x2EE               
     743    2E6           0811                    MOVF PIR1, W             
     744    2E7           0020                    MOVLB 0x0                
     745    2E8           00D2                    MOVWF 0x52               
     746    2E9           0852                    MOVF 0x52, W             
     747    2EA           00D3                    MOVWF 0x53               
     748    2EB           0024                    MOVLB 0x4                
     749    2EC           1395                    BCF TMR0, 0x7            
     750    2ED           2AF4                    GOTO 0x2F4               
     751    2EE           3183                    MOVLP 0x3                
     752    2EF           236F                    CALL 0x36F               
     753    2F0           3182                    MOVLP 0x2                
     754    2F1           3181                    MOVLP 0x1                
     755    2F2           21F9                    CALL 0x1F9               
     756    2F3           3182                    MOVLP 0x2                
     757    2F4           0024                    MOVLB 0x4                
     758    2F5           1615                    BSF TMR0, 0x4            
     759    2F6           1D14                    BTFSS 0x14, 0x2          
     760    2F7           2B6C                    GOTO 0x36C               
     761    2F8           1A94                    BTFSC 0x14, 0x5          
     762    2F9           2B68                    GOTO 0x368               
     763    2FA           3184                    MOVLP 0x4                
     764    2FB           2439                    CALL 0x439               
     765    2FC           3182                    MOVLP 0x2                
     766    2FD           0020                    MOVLB 0x0                
     767    2FE           0862                    MOVF 0x62, W             
     768    2FF           1903                    BTFSC STATUS, 0x2        
     769    300           2B1C                    GOTO 0x31C               
     770    301           087B                    MOVF 0x7B, W             
     771    302           1D03                    BTFSS STATUS, 0x2        
     772    303           2B1C                    GOTO 0x31C               
     773    304           01E2                    CLRF 0x62                
     774    305           01DE                    CLRF 0x5E                
     775    306           01E6                    CLRF 0x66                
     776    307           01D4                    CLRF 0x54                
     777    308           01D5                    CLRF 0x55                
     778    309           3000                    MOVLW 0x0                
     779    30A           0255                    SUBWF 0x55, W            
     780    30B           30FF                    MOVLW 0xFF               
     781    30C           1903                    BTFSC STATUS, 0x2        
     782    30D           0254                    SUBWF 0x54, W            
     783    30E           1803                    BTFSC STATUS, 0x0        
     784    30F           2B1B                    GOTO 0x31B               
     785    310           3001                    MOVLW 0x1                
     786    311           07D4                    ADDWF 0x54, F            
     787    312           3000                    MOVLW 0x0                
     788    313           3DD5                    ADDWFC 0x55, F           
     789    314           3000                    MOVLW 0x0                
     790    315           0255                    SUBWF 0x55, W            
     791    316           30FF                    MOVLW 0xFF               
     792    317           1903                    BTFSC STATUS, 0x2        
     793    318           0254                    SUBWF 0x54, W            
     794    319           1C03                    BTFSS STATUS, 0x0        
     795    31A           2B10                    GOTO 0x310               
     796    31B           0001                    RESET                    
     797    31C           0020                    MOVLB 0x0                
     798    31D           085F                    MOVF 0x5F, W             
     799    31E           1903                    BTFSC STATUS, 0x2        
     800    31F           2B34                    GOTO 0x334               
     801    320           087B                    MOVF 0x7B, W             
     802    321           1D03                    BTFSS STATUS, 0x2        
     803    322           2B34                    GOTO 0x334               
     804    323           01DF                    CLRF 0x5F                
     805    324           085D                    MOVF 0x5D, W             
     806    325           00F2                    MOVWF 0x72               
     807    326           085C                    MOVF 0x5C, W             
     808    327           00F1                    MOVWF 0x71               
     809    328           30E0                    MOVLW 0xE0               
     810    329           00D2                    MOVWF 0x52               
     811    32A           0852                    MOVF 0x52, W             
     812    32B           00F3                    MOVWF 0x73               
     813    32C           3183                    MOVLP 0x3                
     814    32D           23B6                    CALL 0x3B6               
     815    32E           3182                    MOVLP 0x2                
     816    32F           3008                    MOVLW 0x8                
     817    330           0020                    MOVLB 0x0                
     818    331           07DC                    ADDWF 0x5C, F            
     819    332           3000                    MOVLW 0x0                
     820    333           3DDD                    ADDWFC 0x5D, F           
     821    334           0860                    MOVF 0x60, W             
     822    335           1903                    BTFSC STATUS, 0x2        
     823    336           2B47                    GOTO 0x347               
     824    337           087B                    MOVF 0x7B, W             
     825    338           1D03                    BTFSS STATUS, 0x2        
     826    339           2B47                    GOTO 0x347               
     827    33A           01E0                    CLRF 0x60                
     828    33B           085D                    MOVF 0x5D, W             
     829    33C           00F2                    MOVWF 0x72               
     830    33D           085C                    MOVF 0x5C, W             
     831    33E           00F1                    MOVWF 0x71               
     832    33F           3184                    MOVLP 0x4                
     833    340           24F1                    CALL 0x4F1               
     834    341           3182                    MOVLP 0x2                
     835    342           3020                    MOVLW 0x20               
     836    343           0020                    MOVLB 0x0                
     837    344           07DC                    ADDWF 0x5C, F            
     838    345           3000                    MOVLW 0x0                
     839    346           3DDD                    ADDWFC 0x5D, F           
     840    347           0861                    MOVF 0x61, W             
     841    348           1903                    BTFSC STATUS, 0x2        
     842    349           2B68                    GOTO 0x368               
     843    34A           087B                    MOVF 0x7B, W             
     844    34B           1D03                    BTFSS STATUS, 0x2        
     845    34C           2B68                    GOTO 0x368               
     846    34D           01E1                    CLRF 0x61                
     847    34E           1191                    BCF PIR1, 0x3            
     848    34F           0024                    MOVLB 0x4                
     849    350           1695                    BSF TMR0, 0x5            
     850    351           1615                    BSF TMR0, 0x4            
     851    352           0020                    MOVLB 0x0                
     852    353           01D4                    CLRF 0x54                
     853    354           01D5                    CLRF 0x55                
     854    355           3000                    MOVLW 0x0                
     855    356           0255                    SUBWF 0x55, W            
     856    357           30FF                    MOVLW 0xFF               
     857    358           1903                    BTFSC STATUS, 0x2        
     858    359           0254                    SUBWF 0x54, W            
     859    35A           1803                    BTFSC STATUS, 0x0        
     860    35B           2B67                    GOTO 0x367               
     861    35C           3001                    MOVLW 0x1                
     862    35D           07D4                    ADDWF 0x54, F            
     863    35E           3000                    MOVLW 0x0                
     864    35F           3DD5                    ADDWFC 0x55, F           
     865    360           3000                    MOVLW 0x0                
     866    361           0255                    SUBWF 0x55, W            
     867    362           30FF                    MOVLW 0xFF               
     868    363           1903                    BTFSC STATUS, 0x2        
     869    364           0254                    SUBWF 0x54, W            
     870    365           1C03                    BTFSS STATUS, 0x0        
     871    366           2B5C                    GOTO 0x35C               
     872    367           2E00                    GOTO 0x600               
     873    368           0024                    MOVLB 0x4                
     874    369           1E94                    BTFSS 0x14, 0x5          
     875    36A           2B6C                    GOTO 0x36C               
     876    36B           1615                    BSF TMR0, 0x4            
     877    36C           0020                    MOVLB 0x0                
     878    36D           1191                    BCF PIR1, 0x3            
     879    36E           0008                    RETURN                   
     880    36F           0024                    MOVLB 0x4                
     881    370           0811                    MOVF PIR1, W             
     882    371           00F1                    MOVWF 0x71               
     883    372           0871                    MOVF 0x71, W             
     884    373           00F3                    MOVWF 0x73               
     885    374           087C                    MOVF 0x7C, W             
     886    375           1D03                    BTFSS STATUS, 0x2        
     887    376           2B7B                    GOTO 0x37B               
     888    377           3055                    MOVLW 0x55               
     889    378           0673                    XORWF 0x73, W            
     890    379           1D03                    BTFSS STATUS, 0x2        
     891    37A           2B82                    GOTO 0x382               
     892    37B           037C                    DECF 0x7C, W             
     893    37C           1D03                    BTFSS STATUS, 0x2        
     894    37D           2B88                    GOTO 0x388               
     895    37E           30AA                    MOVLW 0xAA               
     896    37F           0673                    XORWF 0x73, W            
     897    380           1903                    BTFSC STATUS, 0x2        
     898    381           2B88                    GOTO 0x388               
     899    382           01FC                    CLRF 0x7C                
     900    383           0020                    MOVLB 0x0                
     901    384           111C                    BCF T2CON, 0x2           
     902    385           019A                    CLRF TMR2                
     903    386           01E6                    CLRF 0x66                
     904    387           2BB3                    GOTO 0x3B3               
     905    388           087C                    MOVF 0x7C, W             
     906    389           1D03                    BTFSS STATUS, 0x2        
     907    38A           2B8E                    GOTO 0x38E               
     908    38B           0020                    MOVLB 0x0                
     909    38C           019A                    CLRF TMR2                
     910    38D           151C                    BSF T2CON, 0x2           
     911    38E           0873                    MOVF 0x73, W             
     912    38F           00F1                    MOVWF 0x71               
     913    390           087C                    MOVF 0x7C, W             
     914    391           3EC0                    ADDLW 0xC0               
     915    392           0086                    MOVWF FSR1               
     916    393           0187                    CLRF FSR1H               
     917    394           0871                    MOVF 0x71, W             
     918    395           0081                    MOVWF INDF1              
     919    396           3001                    MOVLW 0x1                
     920    397           00F1                    MOVWF 0x71               
     921    398           0871                    MOVF 0x71, W             
     922    399           07FC                    ADDWF 0x7C, F            
     923    39A           3003                    MOVLW 0x3                
     924    39B           027C                    SUBWF 0x7C, W            
     925    39C           1C03                    BTFSS STATUS, 0x0        
     926    39D           2BB3                    GOTO 0x3B3               
     927    39E           0021                    MOVLB 0x1                
     928    39F           0842                    MOVF 0x42, W             
     929    3A0           3E02                    ADDLW 0x2                
     930    3A1           00F1                    MOVWF 0x71               
     931    3A2           3000                    MOVLW 0x0                
     932    3A3           1803                    BTFSC STATUS, 0x0        
     933    3A4           3001                    MOVLW 0x1                
     934    3A5           00F2                    MOVWF 0x72               
     935    3A6           087C                    MOVF 0x7C, W             
     936    3A7           0671                    XORWF 0x71, W            
     937    3A8           0472                    IORWF 0x72, W            
     938    3A9           1D03                    BTFSS STATUS, 0x2        
     939    3AA           2BB3                    GOTO 0x3B3               
     940    3AB           0020                    MOVLB 0x0                
     941    3AC           111C                    BCF T2CON, 0x2           
     942    3AD           019A                    CLRF TMR2                
     943    3AE           01E6                    CLRF 0x66                
     944    3AF           3001                    MOVLW 0x1                
     945    3B0           00F1                    MOVWF 0x71               
     946    3B1           0871                    MOVF 0x71, W             
     947    3B2           00E3                    MOVWF 0x63               
     948    3B3           0024                    MOVLB 0x4                
     949    3B4           1615                    BSF TMR0, 0x4            
     950    3B5           0008                    RETURN                   
     951    3B6           3006                    MOVLW 0x6                
     952    3B7           0272                    SUBWF 0x72, W            
     953    3B8           3000                    MOVLW 0x0                
     954    3B9           1903                    BTFSC STATUS, 0x2        
     955    3BA           0271                    SUBWF 0x71, W            
     956    3BB           1803                    BTFSC STATUS, 0x0        
     957    3BC           2BC1                    GOTO 0x3C1               
     958    3BD           3000                    MOVLW 0x0                
     959    3BE           00F1                    MOVWF 0x71               
     960    3BF           3006                    MOVLW 0x6                
     961    3C0           00F2                    MOVWF 0x72               
     962    3C1           0872                    MOVF 0x72, W             
     963    3C2           0023                    MOVLB 0x3                
     964    3C3           0092                    MOVWF PIR2               
     965    3C4           0871                    MOVF 0x71, W             
     966    3C5           0091                    MOVWF PIR1               
     967    3C6           1695                    BSF TMR0, 0x5            
     968    3C7           1315                    BCF TMR0, 0x6            
     969    3C8           1515                    BSF TMR0, 0x2            
     970    3C9           01F5                    CLRF 0x75                
     971    3CA           3010                    MOVLW 0x10               
     972    3CB           0275                    SUBWF 0x75, W            
     973    3CC           1803                    BTFSC STATUS, 0x0        
     974    3CD           2BFA                    GOTO 0x3FA               
     975    3CE           0875                    MOVF 0x75, W             
     976    3CF           0773                    ADDWF 0x73, W            
     977    3D0           00F4                    MOVWF 0x74               
     978    3D1           0874                    MOVF 0x74, W             
     979    3D2           0086                    MOVWF FSR1               
     980    3D3           0187                    CLRF FSR1H               
     981    3D4           0801                    MOVF INDF1, W            
     982    3D5           0023                    MOVLB 0x3                
     983    3D6           0094                    MOVWF 0x14               
     984    3D7           0875                    MOVF 0x75, W             
     985    3D8           3E01                    ADDLW 0x1                
     986    3D9           0773                    ADDWF 0x73, W            
     987    3DA           00F4                    MOVWF 0x74               
     988    3DB           0874                    MOVF 0x74, W             
     989    3DC           0086                    MOVWF FSR1               
     990    3DD           0187                    CLRF FSR1H               
     991    3DE           0801                    MOVF INDF1, W            
     992    3DF           0093                    MOVWF PIR3               
     993    3E0           300E                    MOVLW 0xE                
     994    3E1           0275                    SUBWF 0x75, W            
     995    3E2           1803                    BTFSC STATUS, 0x0        
     996    3E3           1295                    BCF TMR0, 0x5            
     997    3E4           3185                    MOVLP 0x5                
     998    3E5           2557                    CALL 0x557               
     999    3E6           3183                    MOVLP 0x3                
    1000    3E7           0000                    NOP                      
    1001    3E8           0000                    NOP                      
    1002    3E9           300E                    MOVLW 0xE                
    1003    3EA           0275                    SUBWF 0x75, W            
    1004    3EB           1803                    BTFSC STATUS, 0x0        
    1005    3EC           2BF2                    GOTO 0x3F2               
    1006    3ED           3001                    MOVLW 0x1                
    1007    3EE           0023                    MOVLB 0x3                
    1008    3EF           0791                    ADDWF PIR1, F            
    1009    3F0           3000                    MOVLW 0x0                
    1010    3F1           3D92                    ADDWFC PIR2, F           
    1011    3F2           3002                    MOVLW 0x2                
    1012    3F3           00F4                    MOVWF 0x74               
    1013    3F4           0874                    MOVF 0x74, W             
    1014    3F5           07F5                    ADDWF 0x75, F            
    1015    3F6           3010                    MOVLW 0x10               
    1016    3F7           0275                    SUBWF 0x75, W            
    1017    3F8           1C03                    BTFSS STATUS, 0x0        
    1018    3F9           2BCE                    GOTO 0x3CE               
    1019    3FA           0023                    MOVLB 0x3                
    1020    3FB           1115                    BCF TMR0, 0x2            
    1021    3FC           0008                    RETURN                   
    1022    3FD           01F3                    CLRF 0x73                
    1023    3FE           0020                    MOVLB 0x0                
    1024    3FF           1C91                    BTFSS PIR1, 0x1          
    1025    400           0008                    RETURN                   
    1026    401           1091                    BCF PIR1, 0x1            
    1027    402           019A                    CLRF TMR2                
    1028    403           3001                    MOVLW 0x1                
    1029    404           00F2                    MOVWF 0x72               
    1030    405           0872                    MOVF 0x72, W             
    1031    406           07E6                    ADDWF 0x66, F            
    1032    407           3019                    MOVLW 0x19               
    1033    408           0266                    SUBWF 0x66, W            
    1034    409           1C03                    BTFSS STATUS, 0x0        
    1035    40A           0008                    RETURN                   
    1036    40B           01FC                    CLRF 0x7C                
    1037    40C           01F3                    CLRF 0x73                
    1038    40D           3020                    MOVLW 0x20               
    1039    40E           0273                    SUBWF 0x73, W            
    1040    40F           1803                    BTFSC STATUS, 0x0        
    1041    410           2C1E                    GOTO 0x41E               
    1042    411           0873                    MOVF 0x73, W             
    1043    412           3EC0                    ADDLW 0xC0               
    1044    413           0086                    MOVWF FSR1               
    1045    414           0187                    CLRF FSR1H               
    1046    415           0181                    CLRF INDF1               
    1047    416           3001                    MOVLW 0x1                
    1048    417           00F2                    MOVWF 0x72               
    1049    418           0872                    MOVF 0x72, W             
    1050    419           07F3                    ADDWF 0x73, F            
    1051    41A           3020                    MOVLW 0x20               
    1052    41B           0273                    SUBWF 0x73, W            
    1053    41C           1C03                    BTFSS STATUS, 0x0        
    1054    41D           2C11                    GOTO 0x411               
    1055    41E           0020                    MOVLB 0x0                
    1056    41F           111C                    BCF T2CON, 0x2           
    1057    420           01E6                    CLRF 0x66                
    1058    421           3054                    MOVLW 0x54               
    1059    422           3185                    MOVLP 0x5                
    1060    423           2560                    CALL 0x560               
    1061    424           3183                    MOVLP 0x3                
    1062    425           3049                    MOVLW 0x49               
    1063    426           3185                    MOVLP 0x5                
    1064    427           2560                    CALL 0x560               
    1065    428           3183                    MOVLP 0x3                
    1066    429           304D                    MOVLW 0x4D               
    1067    42A           3185                    MOVLP 0x5                
    1068    42B           2560                    CALL 0x560               
    1069    42C           3183                    MOVLP 0x3                
    1070    42D           3045                    MOVLW 0x45               
    1071    42E           3185                    MOVLP 0x5                
    1072    42F           2560                    CALL 0x560               
    1073    430           3183                    MOVLP 0x3                
    1074    431           3052                    MOVLW 0x52               
    1075    432           3185                    MOVLP 0x5                
    1076    433           2560                    CALL 0x560               
    1077    434           3183                    MOVLP 0x3                
    1078    435           3032                    MOVLW 0x32               
    1079    436           3185                    MOVLP 0x5                
    1080    437           2560                    CALL 0x560               
    1081    438           0008                    RETURN                   
    1082    439           0024                    MOVLB 0x4                
    1083    43A           0811                    MOVF PIR1, W             
    1084    43B           00F2                    MOVWF 0x72               
    1085    43C           0872                    MOVF 0x72, W             
    1086    43D           00F3                    MOVWF 0x73               
    1087    43E           0020                    MOVLB 0x0                
    1088    43F           0865                    MOVF 0x65, W             
    1089    440           1903                    BTFSC STATUS, 0x2        
    1090    441           2C62                    GOTO 0x462               
    1091    442           087B                    MOVF 0x7B, W             
    1092    443           1903                    BTFSC STATUS, 0x2        
    1093    444           0008                    RETURN                   
    1094    445           0864                    MOVF 0x64, W             
    1095    446           3EA0                    ADDLW 0xA0               
    1096    447           0086                    MOVWF FSR1               
    1097    448           0187                    CLRF FSR1H               
    1098    449           0801                    MOVF INDF1, W            
    1099    44A           3185                    MOVLP 0x5                
    1100    44B           2560                    CALL 0x560               
    1101    44C           3184                    MOVLP 0x4                
    1102    44D           0020                    MOVLB 0x0                
    1103    44E           0864                    MOVF 0x64, W             
    1104    44F           3EA0                    ADDLW 0xA0               
    1105    450           0086                    MOVWF FSR1               
    1106    451           0187                    CLRF FSR1H               
    1107    452           0801                    MOVF INDF1, W            
    1108    453           3185                    MOVLP 0x5                
    1109    454           254E                    CALL 0x54E               
    1110    455           3001                    MOVLW 0x1                
    1111    456           00F2                    MOVWF 0x72               
    1112    457           0872                    MOVF 0x72, W             
    1113    458           0020                    MOVLB 0x0                
    1114    459           07E4                    ADDWF 0x64, F            
    1115    45A           3001                    MOVLW 0x1                
    1116    45B           02FB                    SUBWF 0x7B, F            
    1117    45C           087B                    MOVF 0x7B, W             
    1118    45D           1903                    BTFSC STATUS, 0x2        
    1119    45E           01E5                    CLRF 0x65                
    1120    45F           0024                    MOVLB 0x4                
    1121    460           1615                    BSF TMR0, 0x4            
    1122    461           0008                    RETURN                   
    1123    462           30FF                    MOVLW 0xFF               
    1124    463           3185                    MOVLP 0x5                
    1125    464           254E                    CALL 0x54E               
    1126    465           3184                    MOVLP 0x4                
    1127    466           30FF                    MOVLW 0xFF               
    1128    467           3185                    MOVLP 0x5                
    1129    468           2560                    CALL 0x560               
    1130    469           0024                    MOVLB 0x4                
    1131    46A           1615                    BSF TMR0, 0x4            
    1132    46B           0008                    RETURN                   
    1133    46C           0020                    MOVLB 0x0                
    1134    46D           01D6                    CLRF 0x56                
    1135    46E           01D7                    CLRF 0x57                
    1136    46F           3013                    MOVLW 0x13               
    1137    470           0257                    SUBWF 0x57, W            
    1138    471           3088                    MOVLW 0x88               
    1139    472           1903                    BTFSC STATUS, 0x2        
    1140    473           0256                    SUBWF 0x56, W            
    1141    474           1803                    BTFSC STATUS, 0x0        
    1142    475           2C81                    GOTO 0x481               
    1143    476           3001                    MOVLW 0x1                
    1144    477           07D6                    ADDWF 0x56, F            
    1145    478           3000                    MOVLW 0x0                
    1146    479           3DD7                    ADDWFC 0x57, F           
    1147    47A           3013                    MOVLW 0x13               
    1148    47B           0257                    SUBWF 0x57, W            
    1149    47C           3088                    MOVLW 0x88               
    1150    47D           1903                    BTFSC STATUS, 0x2        
    1151    47E           0256                    SUBWF 0x56, W            
    1152    47F           1C03                    BTFSS STATUS, 0x0        
    1153    480           2C76                    GOTO 0x476               
    1154    481           3184                    MOVLP 0x4                
    1155    482           24B5                    CALL 0x4B5               
    1156    483           3184                    MOVLP 0x4                
    1157    484           3185                    MOVLP 0x5                
    1158    485           2541                    CALL 0x541               
    1159    486           3184                    MOVLP 0x4                
    1160    487           3184                    MOVLP 0x4                
    1161    488           2495                    CALL 0x495               
    1162    489           3184                    MOVLP 0x4                
    1163    48A           3184                    MOVLP 0x4                
    1164    48B           24D4                    CALL 0x4D4               
    1165    48C           3184                    MOVLP 0x4                
    1166    48D           0064                    CLRWDT                   
    1167    48E           3182                    MOVLP 0x2                
    1168    48F           22D3                    CALL 0x2D3               
    1169    490           3184                    MOVLP 0x4                
    1170    491           3183                    MOVLP 0x3                
    1171    492           23FD                    CALL 0x3FD               
    1172    493           3184                    MOVLP 0x4                
    1173    494           2C8D                    GOTO 0x48D               
    1174    495           3014                    MOVLW 0x14               
    1175    496           003D                    MOVLB 0x1D               
    1176    497           0091                    MOVWF PIR1               
    1177    498           0023                    MOVLB 0x3                
    1178    499           151E                    BSF 0x1E, 0x2            
    1179    49A           159F                    BSF 0x1F, 0x3            
    1180    49B           3022                    MOVLW 0x22               
    1181    49C           009B                    MOVWF PR2                
    1182    49D           019C                    CLRF T2CON               
    1183    49E           121E                    BCF 0x1E, 0x4            
    1184    49F           179D                    BSF 0x1D, 0x7            
    1185    4A0           169E                    BSF 0x1E, 0x5            
    1186    4A1           3005                    MOVLW 0x5                
    1187    4A2           3185                    MOVLP 0x5                
    1188    4A3           250B                    CALL 0x50B               
    1189    4A4           3184                    MOVLP 0x4                
    1190    4A5           3055                    MOVLW 0x55               
    1191    4A6           3185                    MOVLP 0x5                
    1192    4A7           2560                    CALL 0x560               
    1193    4A8           3184                    MOVLP 0x4                
    1194    4A9           3041                    MOVLW 0x41               
    1195    4AA           3185                    MOVLP 0x5                
    1196    4AB           2560                    CALL 0x560               
    1197    4AC           3184                    MOVLP 0x4                
    1198    4AD           3052                    MOVLW 0x52               
    1199    4AE           3185                    MOVLP 0x5                
    1200    4AF           2560                    CALL 0x560               
    1201    4B0           3184                    MOVLP 0x4                
    1202    4B1           3054                    MOVLW 0x54               
    1203    4B2           3185                    MOVLP 0x5                
    1204    4B3           2560                    CALL 0x560               
    1205    4B4           0008                    RETURN                   
    1206    4B5           307A                    MOVLW 0x7A               
    1207    4B6           0021                    MOVLB 0x1                
    1208    4B7           0099                    MOVWF T1GCON             
    1209    4B8           3004                    MOVLW 0x4                
    1210    4B9           0023                    MOVLB 0x3                
    1211    4BA           008E                    MOVWF PORTC              
    1212    4BB           30FB                    MOVLW 0xFB               
    1213    4BC           0024                    MOVLB 0x4                
    1214    4BD           008E                    MOVWF PORTC              
    1215    4BE           0020                    MOVLB 0x0                
    1216    4BF           018E                    CLRF PORTC               
    1217    4C0           30FF                    MOVLW 0xFF               
    1218    4C1           0021                    MOVLB 0x1                
    1219    4C2           008E                    MOVWF PORTC              
    1220    4C3           0023                    MOVLB 0x3                
    1221    4C4           018C                    CLRF PORTA               
    1222    4C5           0024                    MOVLB 0x4                
    1223    4C6           080C                    MOVF PORTA, W            
    1224    4C7           390F                    ANDLW 0xF                
    1225    4C8           008C                    MOVWF PORTA              
    1226    4C9           0025                    MOVLB 0x5                
    1227    4CA           080C                    MOVF PORTA, W            
    1228    4CB           3830                    IORLW 0x30               
    1229    4CC           008C                    MOVWF PORTA              
    1230    4CD           0020                    MOVLB 0x0                
    1231    4CE           018C                    CLRF PORTA               
    1232    4CF           110C                    BCF PORTA, 0x2           
    1233    4D0           30C9                    MOVLW 0xC9               
    1234    4D1           0021                    MOVLB 0x1                
    1235    4D2           008C                    MOVWF PORTA              
    1236    4D3           0008                    RETURN                   
    1237    4D4           3010                    MOVLW 0x10               
    1238    4D5           003D                    MOVLB 0x1D               
    1239    4D6           00A0                    MOVWF 0x20               
    1240    4D7           3011                    MOVLW 0x11               
    1241    4D8           00A1                    MOVWF 0x21               
    1242    4D9           0024                    MOVLB 0x4                
    1243    4DA           0191                    CLRF PIR1                
    1244    4DB           0020                    MOVLB 0x0                
    1245    4DC           080E                    MOVF PORTC, W            
    1246    4DD           00F2                    MOVWF 0x72               
    1247    4DE           3003                    MOVLW 0x3                
    1248    4DF           36F2                    LSRF 0x72, F             
    1249    4E0           0B89                    DECFSZ WREG, F           
    1250    4E1           2CDF                    GOTO 0x4DF               
    1251    4E2           0872                    MOVF 0x72, W             
    1252    4E3           3907                    ANDLW 0x7                
    1253    4E4           0709                    ADDWF WREG, W            
    1254    4E5           3840                    IORLW 0x40               
    1255    4E6           0024                    MOVLB 0x4                
    1256    4E7           0092                    MOVWF PIR2               
    1257    4E8           3036                    MOVLW 0x36               
    1258    4E9           0095                    MOVWF TMR0               
    1259    4EA           1416                    BSF TMR1, 0x0            
    1260    4EB           1617                    BSF TMR1H, 0x4           
    1261    4EC           1597                    BSF TMR1H, 0x3           
    1262    4ED           0812                    MOVF PIR2, W             
    1263    4EE           3185                    MOVLP 0x5                
    1264    4EF           2560                    CALL 0x560               
    1265    4F0           0008                    RETURN                   
    1266    4F1           3006                    MOVLW 0x6                
    1267    4F2           0272                    SUBWF 0x72, W            
    1268    4F3           3000                    MOVLW 0x0                
    1269    4F4           1903                    BTFSC STATUS, 0x2        
    1270    4F5           0271                    SUBWF 0x71, W            
    1271    4F6           1803                    BTFSC STATUS, 0x0        
    1272    4F7           2CFC                    GOTO 0x4FC               
    1273    4F8           3000                    MOVLW 0x0                
    1274    4F9           00F1                    MOVWF 0x71               
    1275    4FA           3006                    MOVLW 0x6                
    1276    4FB           00F2                    MOVWF 0x72               
    1277    4FC           0872                    MOVF 0x72, W             
    1278    4FD           0023                    MOVLB 0x3                
    1279    4FE           0092                    MOVWF PIR2               
    1280    4FF           0871                    MOVF 0x71, W             
    1281    500           0091                    MOVWF PIR1               
    1282    501           1315                    BCF TMR0, 0x6            
    1283    502           1615                    BSF TMR0, 0x4            
    1284    503           1515                    BSF TMR0, 0x2            
    1285    504           3185                    MOVLP 0x5                
    1286    505           2557                    CALL 0x557               
    1287    506           0000                    NOP                      
    1288    507           0000                    NOP                      
    1289    508           0023                    MOVLB 0x3                
    1290    509           1115                    BCF TMR0, 0x2            
    1291    50A           0008                    RETURN                   
    1292    50B           00F2                    MOVWF 0x72               
    1293    50C           3004                    MOVLW 0x4                
    1294    50D           00F1                    MOVWF 0x71               
    1295    50E           0871                    MOVF 0x71, W             
    1296    50F           00F3                    MOVWF 0x73               
    1297    510           30FA                    MOVLW 0xFA               
    1298    511           00F1                    MOVWF 0x71               
    1299    512           0871                    MOVF 0x71, W             
    1300    513           00F4                    MOVWF 0x74               
    1301    514           3001                    MOVLW 0x1                
    1302    515           02F4                    SUBWF 0x74, F            
    1303    516           1D03                    BTFSS STATUS, 0x2        
    1304    517           2D14                    GOTO 0x514               
    1305    518           3001                    MOVLW 0x1                
    1306    519           02F3                    SUBWF 0x73, F            
    1307    51A           1D03                    BTFSS STATUS, 0x2        
    1308    51B           2D10                    GOTO 0x510               
    1309    51C           3001                    MOVLW 0x1                
    1310    51D           02F2                    SUBWF 0x72, F            
    1311    51E           1903                    BTFSC STATUS, 0x2        
    1312    51F           0008                    RETURN                   
    1313    520           2D0C                    GOTO 0x50C               
    1314    521           3180                    MOVLP 0x0                
    1315    522           2836                    GOTO 0x36                
    1316    523           3180                    MOVLP 0x0                
    1317    524           2879                    GOTO 0x79                
    1318    525           3180                    MOVLP 0x0                
    1319    526           28B4                    GOTO 0xB4                
    1320    527           3181                    MOVLP 0x1                
    1321    528           292E                    GOTO 0x12E               
    1322    529           3181                    MOVLP 0x1                
    1323    52A           2949                    GOTO 0x149               
    1324    52B           3181                    MOVLP 0x1                
    1325    52C           2964                    GOTO 0x164               
    1326    52D           3181                    MOVLP 0x1                
    1327    52E           297F                    GOTO 0x17F               
    1328    52F           3181                    MOVLP 0x1                
    1329    530           299A                    GOTO 0x19A               
    1330    531           0872                    MOVF 0x72, W             
    1331    532           0023                    MOVLB 0x3                
    1332    533           0092                    MOVWF PIR2               
    1333    534           0871                    MOVF 0x71, W             
    1334    535           0091                    MOVWF PIR1               
    1335    536           1315                    BCF TMR0, 0x6            
    1336    537           1295                    BCF TMR0, 0x5            
    1337    538           1415                    BSF TMR0, 0x0            
    1338    539           0000                    NOP                      
    1339    53A           0000                    NOP                      
    1340    53B           0023                    MOVLB 0x3                
    1341    53C           0814                    MOVF 0x14, W             
    1342    53D           00F2                    MOVWF 0x72               
    1343    53E           0813                    MOVF PIR3, W             
    1344    53F           00F1                    MOVWF 0x71               
    1345    540           0008                    RETURN                   
    1346    541           3078                    MOVLW 0x78               
    1347    542           0020                    MOVLB 0x0                
    1348    543           049C                    IORWF T2CON, F           
    1349    544           3003                    MOVLW 0x3                
    1350    545           049C                    IORWF T2CON, F           
    1351    546           3026                    MOVLW 0x26               
    1352    547           009B                    MOVWF PR2                
    1353    548           0021                    MOVLB 0x1                
    1354    549           1091                    BCF PIR1, 0x1            
    1355    54A           0020                    MOVLB 0x0                
    1356    54B           1091                    BCF PIR1, 0x1            
    1357    54C           01E6                    CLRF 0x66                
    1358    54D           0008                    RETURN                   
    1359    54E           00F1                    MOVWF 0x71               
    1360    54F           0024                    MOVLB 0x4                
    1361    550           1395                    BCF TMR0, 0x7            
    1362    551           0871                    MOVF 0x71, W             
    1363    552           0091                    MOVWF PIR1               
    1364    553           1B95                    BTFSC TMR0, 0x7          
    1365    554           2D4F                    GOTO 0x54F               
    1366    555           1615                    BSF TMR0, 0x4            
    1367    556           0008                    RETURN                   
    1368    557           3055                    MOVLW 0x55               
    1369    558           0023                    MOVLB 0x3                
    1370    559           0096                    MOVWF TMR1               
    1371    55A           30AA                    MOVLW 0xAA               
    1372    55B           0096                    MOVWF TMR1               
    1373    55C           1495                    BSF TMR0, 0x1            
    1374    55D           0000                    NOP                      
    1375    55E           0000                    NOP                      
    1376    55F           0008                    RETURN                   
    1377    560           00F1                    MOVWF 0x71               
    1378    561           0023                    MOVLB 0x3                
    1379    562           1C9E                    BTFSS 0x1E, 0x1          
    1380    563           2D61                    GOTO 0x561               
    1381    564           0871                    MOVF 0x71, W             
    1382    565           009A                    MOVWF TMR2               
    1383    566           0008                    RETURN                   
    1384    567           0064                    CLRWDT                   
    1385    568           0180                    CLRF INDF0               
    1386    569           3101                    ADDFSR 0, 1              
    1387    56A           0B89                    DECFSZ WREG, F           
    1388    56B           2D68                    GOTO 0x568               
    1389    56C           3400                    RETLW 0x0                
    1390    56D           3FFF                    MOVWI -1[FSR1]           
    1391    56E           3FFF                    MOVWI -1[FSR1]           
    1392    56F           3FFF                    MOVWI -1[FSR1]           
    1393    570           3FFF                    MOVWI -1[FSR1]           
    1394    571           3FFF                    MOVWI -1[FSR1]           
    1395    572           3FFF                    MOVWI -1[FSR1]           
    1396    573           3FFF                    MOVWI -1[FSR1]           
    1397    574           3FFF                    MOVWI -1[FSR1]           
    1398    575           3FFF                    MOVWI -1[FSR1]           
    1399    576           3FFF                    MOVWI -1[FSR1]           
    1400    577           3FFF                    MOVWI -1[FSR1]           
    1401    578           3FFF                    MOVWI -1[FSR1]           
    1402    579           3FFF                    MOVWI -1[FSR1]           
    1403    57A           3FFF                    MOVWI -1[FSR1]           
    1404    57B           3FFF                    MOVWI -1[FSR1]           
    1405    57C           3FFF                    MOVWI -1[FSR1]           
    1406    57D           3FFF                    MOVWI -1[FSR1]           
    1407    57E           3FFF                    MOVWI -1[FSR1]           
    1408    57F           3FFF                    MOVWI -1[FSR1]           
    1409    580           3FFF                    MOVWI -1[FSR1]           
    1410    581           3FFF                    MOVWI -1[FSR1]           
    1411    582           3FFF                    MOVWI -1[FSR1]           
    1412    583           3FFF                    MOVWI -1[FSR1]           
    1413    584           3FFF                    MOVWI -1[FSR1]           
    1414    585           3FFF                    MOVWI -1[FSR1]           
    1415    586           3FFF                    MOVWI -1[FSR1]           
    1416    587           3FFF                    MOVWI -1[FSR1]           
    1417    588           3FFF                    MOVWI -1[FSR1]           
    1418    589           3FFF                    MOVWI -1[FSR1]           
    1419    58A           3FFF                    MOVWI -1[FSR1]           
    1420    58B           3FFF                    MOVWI -1[FSR1]           
    1421    58C           3FFF                    MOVWI -1[FSR1]           
    1422    58D           3FFF                    MOVWI -1[FSR1]           
    1423    58E           3FFF                    MOVWI -1[FSR1]           
    1424    58F           3FFF                    MOVWI -1[FSR1]           
    1425    590           3FFF                    MOVWI -1[FSR1]           
    1426    591           3FFF                    MOVWI -1[FSR1]           
    1427    592           3FFF                    MOVWI -1[FSR1]           
    1428    593           3FFF                    MOVWI -1[FSR1]           
    1429    594           3FFF                    MOVWI -1[FSR1]           
    1430    595           3FFF                    MOVWI -1[FSR1]           
    1431    596           3FFF                    MOVWI -1[FSR1]           
    1432    597           3FFF                    MOVWI -1[FSR1]           
    1433    598           3FFF                    MOVWI -1[FSR1]           
    1434    599           3FFF                    MOVWI -1[FSR1]           
    1435    59A           3FFF                    MOVWI -1[FSR1]           
    1436    59B           3FFF                    MOVWI -1[FSR1]           
    1437    59C           3FFF                    MOVWI -1[FSR1]           
    1438    59D           3FFF                    MOVWI -1[FSR1]           
    1439    59E           3FFF                    MOVWI -1[FSR1]           
    1440    59F           3FFF                    MOVWI -1[FSR1]           
    1441    5A0           3FFF                    MOVWI -1[FSR1]           
    1442    5A1           3FFF                    MOVWI -1[FSR1]           
    1443    5A2           3FFF                    MOVWI -1[FSR1]           
    1444    5A3           3FFF                    MOVWI -1[FSR1]           
    1445    5A4           3FFF                    MOVWI -1[FSR1]           
    1446    5A5           3FFF                    MOVWI -1[FSR1]           
    1447    5A6           3FFF                    MOVWI -1[FSR1]           
    1448    5A7           3FFF                    MOVWI -1[FSR1]           
    1449    5A8           3FFF                    MOVWI -1[FSR1]           
    1450    5A9           3FFF                    MOVWI -1[FSR1]           
    1451    5AA           3FFF                    MOVWI -1[FSR1]           
    1452    5AB           3FFF                    MOVWI -1[FSR1]           
    1453    5AC           3FFF                    MOVWI -1[FSR1]           
    1454    5AD           3FFF                    MOVWI -1[FSR1]           
    1455    5AE           3FFF                    MOVWI -1[FSR1]           
    1456    5AF           3FFF                    MOVWI -1[FSR1]           
    1457    5B0           3FFF                    MOVWI -1[FSR1]           
    1458    5B1           3FFF                    MOVWI -1[FSR1]           
    1459    5B2           3FFF                    MOVWI -1[FSR1]           
    1460    5B3           3FFF                    MOVWI -1[FSR1]           
    1461    5B4           3FFF                    MOVWI -1[FSR1]           
    1462    5B5           3FFF                    MOVWI -1[FSR1]           
    1463    5B6           3FFF                    MOVWI -1[FSR1]           
    1464    5B7           3FFF                    MOVWI -1[FSR1]           
    1465    5B8           3FFF                    MOVWI -1[FSR1]           
    1466    5B9           3FFF                    MOVWI -1[FSR1]           
    1467    5BA           3FFF                    MOVWI -1[FSR1]           
    1468    5BB           3FFF                    MOVWI -1[FSR1]           
    1469    5BC           3FFF                    MOVWI -1[FSR1]           
    1470    5BD           3FFF                    MOVWI -1[FSR1]           
    1471    5BE           3FFF                    MOVWI -1[FSR1]           
    1472    5BF           3FFF                    MOVWI -1[FSR1]           
    1473    5C0           3FFF                    MOVWI -1[FSR1]           
    1474    5C1           3FFF                    MOVWI -1[FSR1]           
    1475    5C2           3FFF                    MOVWI -1[FSR1]           
    1476    5C3           3FFF                    MOVWI -1[FSR1]           
    1477    5C4           3FFF                    MOVWI -1[FSR1]           
    1478    5C5           3FFF                    MOVWI -1[FSR1]           
    1479    5C6           3FFF                    MOVWI -1[FSR1]           
    1480    5C7           3FFF                    MOVWI -1[FSR1]           
    1481    5C8           3FFF                    MOVWI -1[FSR1]           
    1482    5C9           3FFF                    MOVWI -1[FSR1]           
    1483    5CA           3FFF                    MOVWI -1[FSR1]           
    1484    5CB           3FFF                    MOVWI -1[FSR1]           
    1485    5CC           3FFF                    MOVWI -1[FSR1]           
    1486    5CD           3FFF                    MOVWI -1[FSR1]           
    1487    5CE           3FFF                    MOVWI -1[FSR1]           
    1488    5CF           3FFF                    MOVWI -1[FSR1]           
    1489    5D0           3FFF                    MOVWI -1[FSR1]           
    1490    5D1           3FFF                    MOVWI -1[FSR1]           
    1491    5D2           3FFF                    MOVWI -1[FSR1]           
    1492    5D3           3FFF                    MOVWI -1[FSR1]           
    1493    5D4           3FFF                    MOVWI -1[FSR1]           
    1494    5D5           3FFF                    MOVWI -1[FSR1]           
    1495    5D6           3FFF                    MOVWI -1[FSR1]           
    1496    5D7           3FFF                    MOVWI -1[FSR1]           
    1497    5D8           3FFF                    MOVWI -1[FSR1]           
    1498    5D9           3FFF                    MOVWI -1[FSR1]           
    1499    5DA           3FFF                    MOVWI -1[FSR1]           
    1500    5DB           3FFF                    MOVWI -1[FSR1]           
    1501    5DC           3FFF                    MOVWI -1[FSR1]           
    1502    5DD           3FFF                    MOVWI -1[FSR1]           
    1503    5DE           3FFF                    MOVWI -1[FSR1]           
    1504    5DF           3FFF                    MOVWI -1[FSR1]           
    1505    5E0           3FFF                    MOVWI -1[FSR1]           
    1506    5E1           3FFF                    MOVWI -1[FSR1]           
    1507    5E2           3FFF                    MOVWI -1[FSR1]           
    1508    5E3           3FFF                    MOVWI -1[FSR1]           
    1509    5E4           3FFF                    MOVWI -1[FSR1]           
    1510    5E5           3FFF                    MOVWI -1[FSR1]           
    1511    5E6           3FFF                    MOVWI -1[FSR1]           
    1512    5E7           3FFF                    MOVWI -1[FSR1]           
    1513    5E8           3FFF                    MOVWI -1[FSR1]           
    1514    5E9           3FFF                    MOVWI -1[FSR1]           
    1515    5EA           3FFF                    MOVWI -1[FSR1]           
    1516    5EB           3FFF                    MOVWI -1[FSR1]           
    1517    5EC           3FFF                    MOVWI -1[FSR1]           
    1518    5ED           3FFF                    MOVWI -1[FSR1]           
    1519    5EE           3FFF                    MOVWI -1[FSR1]           
    1520    5EF           3FFF                    MOVWI -1[FSR1]           
    1521    5F0           3FFF                    MOVWI -1[FSR1]           
    1522    5F1           3FFF                    MOVWI -1[FSR1]           
    1523    5F2           3FFF                    MOVWI -1[FSR1]           
    1524    5F3           3FFF                    MOVWI -1[FSR1]           
    1525    5F4           3FFF                    MOVWI -1[FSR1]           
    1526    5F5           3FFF                    MOVWI -1[FSR1]           
    1527    5F6           3FFF                    MOVWI -1[FSR1]           
    1528    5F7           3FFF                    MOVWI -1[FSR1]           
    1529    5F8           3FFF                    MOVWI -1[FSR1]           
    1530    5F9           3FFF                    MOVWI -1[FSR1]           
    1531    5FA           3FFF                    MOVWI -1[FSR1]           
    1532    5FB           3FFF                    MOVWI -1[FSR1]           
    1533    5FC           3FFF                    MOVWI -1[FSR1]           
    1534    5FD           3FFF                    MOVWI -1[FSR1]           
    1535    5FE           3FFF                    MOVWI -1[FSR1]           
    1536    5FF           3FFF                    MOVWI -1[FSR1]           
    1537    600           3186                    MOVLP 0x6                
    1538    601           2E02                    GOTO 0x602               
    1539    602           3187                    MOVLP 0x7                
    1540    603           2FD2                    GOTO 0x7D2               
    1541    604           3078                    MOVLW 0x78               
    1542    605           0020                    MOVLB 0x0                
    1543    606           049C                    IORWF T2CON, F           
    1544    607           3003                    MOVLW 0x3                
    1545    608           049C                    IORWF T2CON, F           
    1546    609           3026                    MOVLW 0x26               
    1547    60A           009B                    MOVWF PR2                
    1548    60B           0021                    MOVLB 0x1                
    1549    60C           1091                    BCF PIR1, 0x1            
    1550    60D           0020                    MOVLB 0x0                
    1551    60E           1091                    BCF PIR1, 0x1            
    1552    60F           0021                    MOVLB 0x1                
    1553    610           01B9                    CLRF 0x39                
    1554    611           0008                    RETURN                   
    1555    612           00F4                    MOVWF 0x74               
    1556    613           01F6                    CLRF 0x76                
    1557    614           0870                    MOVF 0x70, W             
    1558    615           0276                    SUBWF 0x76, W            
    1559    616           1803                    BTFSC STATUS, 0x0        
    1560    617           0008                    RETURN                   
    1561    618           0876                    MOVF 0x76, W             
    1562    619           0774                    ADDWF 0x74, W            
    1563    61A           00F1                    MOVWF 0x71               
    1564    61B           0871                    MOVF 0x71, W             
    1565    61C           0086                    MOVWF FSR1               
    1566    61D           0187                    CLRF FSR1H               
    1567    61E           0181                    CLRF INDF1               
    1568    61F           0021                    MOVLB 0x1                
    1569    620           160C                    BSF PORTA, 0x4           
    1570    621           3008                    MOVLW 0x8                
    1571    622           00F1                    MOVWF 0x71               
    1572    623           0871                    MOVF 0x71, W             
    1573    624           00F5                    MOVWF 0x75               
    1574    625           0875                    MOVF 0x75, W             
    1575    626           1903                    BTFSC STATUS, 0x2        
    1576    627           2E51                    GOTO 0x651               
    1577    628           3042                    MOVLW 0x42               
    1578    629           0B89                    DECFSZ WREG, F           
    1579    62A           2E29                    GOTO 0x629               
    1580    62B           3200                    BRA 0x62C                
    1581    62C           0020                    MOVLB 0x0                
    1582    62D           168C                    BSF PORTA, 0x5           
    1583    62E           0E0C                    SWAPF PORTA, W           
    1584    62F           3901                    ANDLW 0x1                
    1585    630           00F1                    MOVWF 0x71               
    1586    631           0875                    MOVF 0x75, W             
    1587    632           3EFF                    ADDLW 0xFF               
    1588    633           0A89                    INCF WREG, F             
    1589    634           2E36                    GOTO 0x636               
    1590    635           35F1                    LSLF 0x71, F             
    1591    636           0B89                    DECFSZ WREG, F           
    1592    637           2E35                    GOTO 0x635               
    1593    638           0871                    MOVF 0x71, W             
    1594    639           00F2                    MOVWF 0x72               
    1595    63A           0876                    MOVF 0x76, W             
    1596    63B           0774                    ADDWF 0x74, W            
    1597    63C           00F3                    MOVWF 0x73               
    1598    63D           0873                    MOVF 0x73, W             
    1599    63E           0086                    MOVWF FSR1               
    1600    63F           0187                    CLRF FSR1H               
    1601    640           0872                    MOVF 0x72, W             
    1602    641           0481                    IORWF INDF1, F           
    1603    642           3042                    MOVLW 0x42               
    1604    643           0B89                    DECFSZ WREG, F           
    1605    644           2E43                    GOTO 0x643               
    1606    645           3200                    BRA 0x646                
    1607    646           0020                    MOVLB 0x0                
    1608    647           128C                    BCF PORTA, 0x5           
    1609    648           3042                    MOVLW 0x42               
    1610    649           0B89                    DECFSZ WREG, F           
    1611    64A           2E49                    GOTO 0x649               
    1612    64B           3200                    BRA 0x64C                
    1613    64C           3001                    MOVLW 0x1                
    1614    64D           02F5                    SUBWF 0x75, F            
    1615    64E           0875                    MOVF 0x75, W             
    1616    64F           1D03                    BTFSS STATUS, 0x2        
    1617    650           2E28                    GOTO 0x628               
    1618    651           0876                    MOVF 0x76, W             
    1619    652           3E01                    ADDLW 0x1                
    1620    653           00F1                    MOVWF 0x71               
    1621    654           3000                    MOVLW 0x0                
    1622    655           1803                    BTFSC STATUS, 0x0        
    1623    656           3001                    MOVLW 0x1                
    1624    657           00F2                    MOVWF 0x72               
    1625    658           0872                    MOVF 0x72, W             
    1626    659           3A80                    XORLW 0x80               
    1627    65A           00F3                    MOVWF 0x73               
    1628    65B           3080                    MOVLW 0x80               
    1629    65C           0273                    SUBWF 0x73, W            
    1630    65D           1D03                    BTFSS STATUS, 0x2        
    1631    65E           2E61                    GOTO 0x661               
    1632    65F           0870                    MOVF 0x70, W             
    1633    660           0271                    SUBWF 0x71, W            
    1634    661           1C03                    BTFSS STATUS, 0x0        
    1635    662           2E67                    GOTO 0x667               
    1636    663           318A                    MOVLP 0xA                
    1637    664           2220                    CALL 0x220               
    1638    665           3186                    MOVLP 0x6                
    1639    666           2E6A                    GOTO 0x66A               
    1640    667           318A                    MOVLP 0xA                
    1641    668           220B                    CALL 0x20B               
    1642    669           3186                    MOVLP 0x6                
    1643    66A           3001                    MOVLW 0x1                
    1644    66B           00F1                    MOVWF 0x71               
    1645    66C           0871                    MOVF 0x71, W             
    1646    66D           07F6                    ADDWF 0x76, F            
    1647    66E           2E14                    GOTO 0x614               
    1648    66F           3189                    MOVLP 0x9                
    1649    670           21FE                    CALL 0x1FE               
    1650    671           3186                    MOVLP 0x6                
    1651    672           3186                    MOVLP 0x6                
    1652    673           2604                    CALL 0x604               
    1653    674           3186                    MOVLP 0x6                
    1654    675           318A                    MOVLP 0xA                
    1655    676           2297                    CALL 0x297               
    1656    677           3186                    MOVLP 0x6                
    1657    678           318A                    MOVLP 0xA                
    1658    679           227A                    CALL 0x27A               
    1659    67A           3186                    MOVLP 0x6                
    1660    67B           0020                    MOVLB 0x0                
    1661    67C           120C                    BCF PORTA, 0x4           
    1662    67D           0021                    MOVLB 0x1                
    1663    67E           120C                    BCF PORTA, 0x4           
    1664    67F           300B                    MOVLW 0xB                
    1665    680           0020                    MOVLB 0x0                
    1666    681           00EB                    MOVWF 0x6B               
    1667    682           3026                    MOVLW 0x26               
    1668    683           00EA                    MOVWF 0x6A               
    1669    684           305D                    MOVLW 0x5D               
    1670    685           0B89                    DECFSZ WREG, F           
    1671    686           2E85                    GOTO 0x685               
    1672    687           0BEA                    DECFSZ 0x6A, F           
    1673    688           2E85                    GOTO 0x685               
    1674    689           0BEB                    DECFSZ 0x6B, F           
    1675    68A           2E85                    GOTO 0x685               
    1676    68B           3200                    BRA 0x68C                
    1677    68C           0020                    MOVLB 0x0                
    1678    68D           160C                    BSF PORTA, 0x4           
    1679    68E           0064                    CLRWDT                   
    1680    68F           1D0B                    BTFSS INTCON, 0x2        
    1681    690           2EED                    GOTO 0x6ED               
    1682    691           0020                    MOVLB 0x0                
    1683    692           1D0C                    BTFSS PORTA, 0x2         
    1684    693           2EED                    GOTO 0x6ED               
    1685    694           110B                    BCF INTCON, 0x2          
    1686    695           3001                    MOVLW 0x1                
    1687    696           0021                    MOVLB 0x1                
    1688    697           02DC                    SUBWF 0x5C, F            
    1689    698           3000                    MOVLW 0x0                
    1690    699           3BDD                    SUBWFB 0x5D, F           
    1691    69A           0A5C                    INCF 0x5C, W             
    1692    69B           1D03                    BTFSS STATUS, 0x2        
    1693    69C           2EED                    GOTO 0x6ED               
    1694    69D           0A5D                    INCF 0x5D, W             
    1695    69E           1D03                    BTFSS STATUS, 0x2        
    1696    69F           2EED                    GOTO 0x6ED               
    1697    6A0           303D                    MOVLW 0x3D               
    1698    6A1           00DC                    MOVWF 0x5C               
    1699    6A2           3000                    MOVLW 0x0                
    1700    6A3           00DD                    MOVWF 0x5D               
    1701    6A4           082D                    MOVF 0x2D, W             
    1702    6A5           0020                    MOVLB 0x0                
    1703    6A6           00EB                    MOVWF 0x6B               
    1704    6A7           0021                    MOVLB 0x1                
    1705    6A8           082C                    MOVF 0x2C, W             
    1706    6A9           0020                    MOVLB 0x0                
    1707    6AA           00EA                    MOVWF 0x6A               
    1708    6AB           0021                    MOVLB 0x1                
    1709    6AC           0AAC                    INCF 0x2C, F             
    1710    6AD           1903                    BTFSC STATUS, 0x2        
    1711    6AE           0AAD                    INCF 0x2D, F             
    1712    6AF           3000                    MOVLW 0x0                
    1713    6B0           0020                    MOVLB 0x0                
    1714    6B1           026B                    SUBWF 0x6B, W            
    1715    6B2           303D                    MOVLW 0x3D               
    1716    6B3           1903                    BTFSC STATUS, 0x2        
    1717    6B4           026A                    SUBWF 0x6A, W            
    1718    6B5           1C03                    BTFSS STATUS, 0x0        
    1719    6B6           2EED                    GOTO 0x6ED               
    1720    6B7           110C                    BCF PORTA, 0x2           
    1721    6B8           3043                    MOVLW 0x43               
    1722    6B9           3189                    MOVLP 0x9                
    1723    6BA           21EE                    CALL 0x1EE               
    1724    6BB           3186                    MOVLP 0x6                
    1725    6BC           304C                    MOVLW 0x4C               
    1726    6BD           3189                    MOVLP 0x9                
    1727    6BE           21EE                    CALL 0x1EE               
    1728    6BF           3186                    MOVLP 0x6                
    1729    6C0           304F                    MOVLW 0x4F               
    1730    6C1           3189                    MOVLP 0x9                
    1731    6C2           21EE                    CALL 0x1EE               
    1732    6C3           3186                    MOVLP 0x6                
    1733    6C4           3053                    MOVLW 0x53               
    1734    6C5           3189                    MOVLP 0x9                
    1735    6C6           21EE                    CALL 0x1EE               
    1736    6C7           3186                    MOVLP 0x6                
    1737    6C8           3045                    MOVLW 0x45               
    1738    6C9           3189                    MOVLP 0x9                
    1739    6CA           21EE                    CALL 0x1EE               
    1740    6CB           3186                    MOVLP 0x6                
    1741    6CC           3020                    MOVLW 0x20               
    1742    6CD           3189                    MOVLP 0x9                
    1743    6CE           21EE                    CALL 0x1EE               
    1744    6CF           3186                    MOVLP 0x6                
    1745    6D0           3044                    MOVLW 0x44               
    1746    6D1           3189                    MOVLP 0x9                
    1747    6D2           21EE                    CALL 0x1EE               
    1748    6D3           3186                    MOVLP 0x6                
    1749    6D4           3043                    MOVLW 0x43               
    1750    6D5           3189                    MOVLP 0x9                
    1751    6D6           21EE                    CALL 0x1EE               
    1752    6D7           3186                    MOVLP 0x6                
    1753    6D8           302D                    MOVLW 0x2D               
    1754    6D9           3189                    MOVLP 0x9                
    1755    6DA           21EE                    CALL 0x1EE               
    1756    6DB           3186                    MOVLP 0x6                
    1757    6DC           3044                    MOVLW 0x44               
    1758    6DD           3189                    MOVLP 0x9                
    1759    6DE           21EE                    CALL 0x1EE               
    1760    6DF           3186                    MOVLP 0x6                
    1761    6E0           3043                    MOVLW 0x43               
    1762    6E1           3189                    MOVLP 0x9                
    1763    6E2           21EE                    CALL 0x1EE               
    1764    6E3           3186                    MOVLP 0x6                
    1765    6E4           0021                    MOVLB 0x1                
    1766    6E5           01AC                    CLRF 0x2C                
    1767    6E6           01AD                    CLRF 0x2D                
    1768    6E7           3001                    MOVLW 0x1                
    1769    6E8           0020                    MOVLB 0x0                
    1770    6E9           00EA                    MOVWF 0x6A               
    1771    6EA           086A                    MOVF 0x6A, W             
    1772    6EB           0021                    MOVLB 0x1                
    1773    6EC           00AE                    MOVWF 0x2E               
    1774    6ED           318C                    MOVLP 0xC                
    1775    6EE           24F1                    CALL 0x4F1               
    1776    6EF           3186                    MOVLP 0x6                
    1777    6F0           318C                    MOVLP 0xC                
    1778    6F1           241C                    CALL 0x41C               
    1779    6F2           3186                    MOVLP 0x6                
    1780    6F3           2E8E                    GOTO 0x68E               
    1781    6F4           0020                    MOVLB 0x0                
    1782    6F5           01E1                    CLRF 0x61                
    1783    6F6           01E2                    CLRF 0x62                
    1784    6F7           01E5                    CLRF 0x65                
    1785    6F8           01E6                    CLRF 0x66                
    1786    6F9           01E3                    CLRF 0x63                
    1787    6FA           01E4                    CLRF 0x64                
    1788    6FB           30A0                    MOVLW 0xA0               
    1789    6FC           0086                    MOVWF FSR1               
    1790    6FD           3001                    MOVLW 0x1                
    1791    6FE           0087                    MOVWF FSR1H              
    1792    6FF           3041                    MOVLW 0x41               
    1793    700           0084                    MOVWF FSR0               
    1794    701           3000                    MOVLW 0x0                
    1795    702           0085                    MOVWF FSR0H              
    1796    703           3020                    MOVLW 0x20               
    1797    704           00BF                    MOVWF 0x3F               
    1798    705           0016                    MOVIW FSR1++             
    1799    706           001A                    MOVWI FSR0++             
    1800    707           0BBF                    DECFSZ 0x3F, F           
    1801    708           2F05                    GOTO 0x705               
    1802    709           0021                    MOVLB 0x1                
    1803    70A           0838                    MOVF 0x38, W             
    1804    70B           1903                    BTFSC STATUS, 0x2        
    1805    70C           0008                    RETURN                   
    1806    70D           01B8                    CLRF 0x38                
    1807    70E           0020                    MOVLB 0x0                
    1808    70F           01ED                    CLRF 0x6D                
    1809    710           0022                    MOVLB 0x2                
    1810    711           0822                    MOVF 0x22, W             
    1811    712           0020                    MOVLB 0x0                
    1812    713           00BF                    MOVWF 0x3F               
    1813    714           01C0                    CLRF 0x40                
    1814    715           083F                    MOVF 0x3F, W             
    1815    716           00E3                    MOVWF 0x63               
    1816    717           0840                    MOVF 0x40, W             
    1817    718           00E4                    MOVWF 0x64               
    1818    719           01E5                    CLRF 0x65                
    1819    71A           01E6                    CLRF 0x66                
    1820    71B           0864                    MOVF 0x64, W             
    1821    71C           0266                    SUBWF 0x66, W            
    1822    71D           1D03                    BTFSS STATUS, 0x2        
    1823    71E           2F21                    GOTO 0x721               
    1824    71F           0863                    MOVF 0x63, W             
    1825    720           0265                    SUBWF 0x65, W            
    1826    721           1803                    BTFSC STATUS, 0x0        
    1827    722           2F3C                    GOTO 0x73C               
    1828    723           0865                    MOVF 0x65, W             
    1829    724           3E02                    ADDLW 0x2                
    1830    725           3E20                    ADDLW 0x20               
    1831    726           0086                    MOVWF FSR1               
    1832    727           3001                    MOVLW 0x1                
    1833    728           0087                    MOVWF FSR1H              
    1834    729           0801                    MOVF INDF1, W            
    1835    72A           00BF                    MOVWF 0x3F               
    1836    72B           0865                    MOVF 0x65, W             
    1837    72C           3E41                    ADDLW 0x41               
    1838    72D           0086                    MOVWF FSR1               
    1839    72E           0187                    CLRF FSR1H               
    1840    72F           083F                    MOVF 0x3F, W             
    1841    730           0081                    MOVWF INDF1              
    1842    731           0865                    MOVF 0x65, W             
    1843    732           3E20                    ADDLW 0x20               
    1844    733           0086                    MOVWF FSR1               
    1845    734           3001                    MOVLW 0x1                
    1846    735           0087                    MOVWF FSR1H              
    1847    736           0181                    CLRF INDF1               
    1848    737           3001                    MOVLW 0x1                
    1849    738           07E5                    ADDWF 0x65, F            
    1850    739           3000                    MOVLW 0x0                
    1851    73A           3DE6                    ADDWFC 0x66, F           
    1852    73B           2F1B                    GOTO 0x71B               
    1853    73C           0022                    MOVLB 0x2                
    1854    73D           01A0                    CLRF 0x20                
    1855    73E           01A1                    CLRF 0x21                
    1856    73F           3055                    MOVLW 0x55               
    1857    740           3189                    MOVLP 0x9                
    1858    741           21EE                    CALL 0x1EE               
    1859    742           3186                    MOVLP 0x6                
    1860    743           30AA                    MOVLW 0xAA               
    1861    744           3189                    MOVLP 0x9                
    1862    745           21EE                    CALL 0x1EE               
    1863    746           3186                    MOVLP 0x6                
    1864    747           0020                    MOVLB 0x0                
    1865    748           01E5                    CLRF 0x65                
    1866    749           01E6                    CLRF 0x66                
    1867    74A           0864                    MOVF 0x64, W             
    1868    74B           0266                    SUBWF 0x66, W            
    1869    74C           1D03                    BTFSS STATUS, 0x2        
    1870    74D           2F50                    GOTO 0x750               
    1871    74E           0863                    MOVF 0x63, W             
    1872    74F           0265                    SUBWF 0x65, W            
    1873    750           1803                    BTFSC STATUS, 0x0        
    1874    751           2F60                    GOTO 0x760               
    1875    752           0865                    MOVF 0x65, W             
    1876    753           3E41                    ADDLW 0x41               
    1877    754           0086                    MOVWF FSR1               
    1878    755           0187                    CLRF FSR1H               
    1879    756           0801                    MOVF INDF1, W            
    1880    757           3189                    MOVLP 0x9                
    1881    758           21EE                    CALL 0x1EE               
    1882    759           3186                    MOVLP 0x6                
    1883    75A           3001                    MOVLW 0x1                
    1884    75B           0020                    MOVLB 0x0                
    1885    75C           07E5                    ADDWF 0x65, F            
    1886    75D           3000                    MOVLW 0x0                
    1887    75E           3DE6                    ADDWFC 0x66, F           
    1888    75F           2F4A                    GOTO 0x74A               
    1889    760           01E5                    CLRF 0x65                
    1890    761           01E6                    CLRF 0x66                
    1891    762           0863                    MOVF 0x63, W             
    1892    763           3EFE                    ADDLW 0xFE               
    1893    764           00BF                    MOVWF 0x3F               
    1894    765           30FF                    MOVLW 0xFF               
    1895    766           3D64                    ADDWFC 0x64, W           
    1896    767           00C0                    MOVWF 0x40               
    1897    768           0840                    MOVF 0x40, W             
    1898    769           0266                    SUBWF 0x66, W            
    1899    76A           1D03                    BTFSS STATUS, 0x2        
    1900    76B           2F6E                    GOTO 0x76E               
    1901    76C           083F                    MOVF 0x3F, W             
    1902    76D           0265                    SUBWF 0x65, W            
    1903    76E           1803                    BTFSC STATUS, 0x0        
    1904    76F           2F80                    GOTO 0x780               
    1905    770           0865                    MOVF 0x65, W             
    1906    771           3E41                    ADDLW 0x41               
    1907    772           0086                    MOVWF FSR1               
    1908    773           0187                    CLRF FSR1H               
    1909    774           0801                    MOVF INDF1, W            
    1910    775           00BF                    MOVWF 0x3F               
    1911    776           01C0                    CLRF 0x40                
    1912    777           083F                    MOVF 0x3F, W             
    1913    778           07E1                    ADDWF 0x61, F            
    1914    779           0840                    MOVF 0x40, W             
    1915    77A           3DE2                    ADDWFC 0x62, F           
    1916    77B           3001                    MOVLW 0x1                
    1917    77C           07E5                    ADDWF 0x65, F            
    1918    77D           3000                    MOVLW 0x0                
    1919    77E           3DE6                    ADDWFC 0x66, F           
    1920    77F           2F62                    GOTO 0x762               
    1921    780           0863                    MOVF 0x63, W             
    1922    781           3EFE                    ADDLW 0xFE               
    1923    782           3E41                    ADDLW 0x41               
    1924    783           0086                    MOVWF FSR1               
    1925    784           0187                    CLRF FSR1H               
    1926    785           0862                    MOVF 0x62, W             
    1927    786           00C0                    MOVWF 0x40               
    1928    787           0861                    MOVF 0x61, W             
    1929    788           00BF                    MOVWF 0x3F               
    1930    789           0840                    MOVF 0x40, W             
    1931    78A           00BF                    MOVWF 0x3F               
    1932    78B           01C0                    CLRF 0x40                
    1933    78C           083F                    MOVF 0x3F, W             
    1934    78D           0601                    XORWF INDF1, W           
    1935    78E           1D03                    BTFSS STATUS, 0x2        
    1936    78F           2FBD                    GOTO 0x7BD               
    1937    790           0863                    MOVF 0x63, W             
    1938    791           3EFF                    ADDLW 0xFF               
    1939    792           3E41                    ADDLW 0x41               
    1940    793           0086                    MOVWF FSR1               
    1941    794           0187                    CLRF FSR1H               
    1942    795           0801                    MOVF INDF1, W            
    1943    796           0661                    XORWF 0x61, W            
    1944    797           1D03                    BTFSS STATUS, 0x2        
    1945    798           2FBD                    GOTO 0x7BD               
    1946    799           01E5                    CLRF 0x65                
    1947    79A           01E6                    CLRF 0x66                
    1948    79B           3000                    MOVLW 0x0                
    1949    79C           0266                    SUBWF 0x66, W            
    1950    79D           3020                    MOVLW 0x20               
    1951    79E           1903                    BTFSC STATUS, 0x2        
    1952    79F           0265                    SUBWF 0x65, W            
    1953    7A0           1803                    BTFSC STATUS, 0x0        
    1954    7A1           2FB5                    GOTO 0x7B5               
    1955    7A2           3045                    MOVLW 0x45               
    1956    7A3           00BF                    MOVWF 0x3F               
    1957    7A4           0865                    MOVF 0x65, W             
    1958    7A5           3EBA                    ADDLW 0xBA               
    1959    7A6           0086                    MOVWF FSR1               
    1960    7A7           0187                    CLRF FSR1H               
    1961    7A8           083F                    MOVF 0x3F, W             
    1962    7A9           0081                    MOVWF INDF1              
    1963    7AA           3001                    MOVLW 0x1                
    1964    7AB           07E5                    ADDWF 0x65, F            
    1965    7AC           3000                    MOVLW 0x0                
    1966    7AD           3DE6                    ADDWFC 0x66, F           
    1967    7AE           3000                    MOVLW 0x0                
    1968    7AF           0266                    SUBWF 0x66, W            
    1969    7B0           3020                    MOVLW 0x20               
    1970    7B1           1903                    BTFSC STATUS, 0x2        
    1971    7B2           0265                    SUBWF 0x65, W            
    1972    7B3           1C03                    BTFSS STATUS, 0x0        
    1973    7B4           2FA2                    GOTO 0x7A2               
    1974    7B5           0863                    MOVF 0x63, W             
    1975    7B6           00BF                    MOVWF 0x3F               
    1976    7B7           083F                    MOVF 0x3F, W             
    1977    7B8           00FC                    MOVWF 0x7C               
    1978    7B9           3041                    MOVLW 0x41               
    1979    7BA           318B                    MOVLP 0xB                
    1980    7BB           2381                    CALL 0x381               
    1981    7BC           0008                    RETURN                   
    1982    7BD           30FC                    MOVLW 0xFC               
    1983    7BE           3189                    MOVLP 0x9                
    1984    7BF           21EE                    CALL 0x1EE               
    1985    7C0           0020                    MOVLB 0x0                
    1986    7C1           0842                    MOVF 0x42, W             
    1987    7C2           00BF                    MOVWF 0x3F               
    1988    7C3           083F                    MOVF 0x3F, W             
    1989    7C4           0021                    MOVLB 0x1                
    1990    7C5           00BA                    MOVWF 0x3A               
    1991    7C6           01BB                    CLRF 0x3B                
    1992    7C7           3002                    MOVLW 0x2                
    1993    7C8           0020                    MOVLB 0x0                
    1994    7C9           00BF                    MOVWF 0x3F               
    1995    7CA           083F                    MOVF 0x3F, W             
    1996    7CB           00EE                    MOVWF 0x6E               
    1997    7CC           01EC                    CLRF 0x6C                
    1998    7CD           3001                    MOVLW 0x1                
    1999    7CE           00BF                    MOVWF 0x3F               
    2000    7CF           083F                    MOVF 0x3F, W             
    2001    7D0           00EF                    MOVWF 0x6F               
    2002    7D1           0008                    RETURN                   
    2003    7D2           30E3                    MOVLW 0xE3               
    2004    7D3           0084                    MOVWF FSR0               
    2005    7D4           3089                    MOVLW 0x89               
    2006    7D5           0085                    MOVWF FSR0H              
    2007    7D6           0021                    MOVLB 0x1                
    2008    7D7           0012                    MOVIW FSR0++             
    2009    7D8           00DA                    MOVWF 0x5A               
    2010    7D9           0012                    MOVIW FSR0++             
    2011    7DA           00DB                    MOVWF 0x5B               
    2012    7DB           0012                    MOVIW FSR0++             
    2013    7DC           00DC                    MOVWF 0x5C               
    2014    7DD           0012                    MOVIW FSR0++             
    2015    7DE           00DD                    MOVWF 0x5D               
    2016    7DF           0012                    MOVIW FSR0++             
    2017    7E0           00DE                    MOVWF 0x5E               
    2018    7E1           0020                    MOVLB 0x0                
    2019    7E2           01EC                    CLRF 0x6C                
    2020    7E3           01ED                    CLRF 0x6D                
    2021    7E4           01EE                    CLRF 0x6E                
    2022    7E5           01EF                    CLRF 0x6F                
    2023    7E6           30A0                    MOVLW 0xA0               
    2024    7E7           0084                    MOVWF FSR0               
    2025    7E8           3000                    MOVLW 0x0                
    2026    7E9           0085                    MOVWF FSR0H              
    2027    7EA           303A                    MOVLW 0x3A               
    2028    7EB           3189                    MOVLP 0x9                
    2029    7EC           21E8                    CALL 0x1E8               
    2030    7ED           3187                    MOVLP 0x7                
    2031    7EE           3020                    MOVLW 0x20               
    2032    7EF           0084                    MOVWF FSR0               
    2033    7F0           3001                    MOVLW 0x1                
    2034    7F1           0085                    MOVWF FSR0H              
    2035    7F2           3034                    MOVLW 0x34               
    2036    7F3           3189                    MOVLP 0x9                
    2037    7F4           21E8                    CALL 0x1E8               
    2038    7F5           3187                    MOVLP 0x7                
    2039    7F6           30A0                    MOVLW 0xA0               
    2040    7F7           0084                    MOVWF FSR0               
    2041    7F8           3001                    MOVLW 0x1                
    2042    7F9           0085                    MOVWF FSR0H              
    2043    7FA           3040                    MOVLW 0x40               
    2044    7FB           3189                    MOVLP 0x9                
    2045    7FC           21E8                    CALL 0x1E8               
    2046    7FD           0020                    MOVLB 0x0                
    2047    7FE           3186                    MOVLP 0x6                
    2048    7FF           2E6F                    GOTO 0x66F               
    2049    800           3FFF                    MOVWI -1[FSR1]           
    2050    801           3FFF                    MOVWI -1[FSR1]           
    2051    802           3FFF                    MOVWI -1[FSR1]           
    2052    803           3FFF                    MOVWI -1[FSR1]           
    2053    804           3FFF                    MOVWI -1[FSR1]           
    2054    805           3FFF                    MOVWI -1[FSR1]           
    2055    806           3FFF                    MOVWI -1[FSR1]           
    2056    807           3FFF                    MOVWI -1[FSR1]           
    2057    808           3FFF                    MOVWI -1[FSR1]           
    2058    809           3FFF                    MOVWI -1[FSR1]           
    2059    80A           3FFF                    MOVWI -1[FSR1]           
    2060    80B           3FFF                    MOVWI -1[FSR1]           
    2061    80C           3FFF                    MOVWI -1[FSR1]           
    2062    80D           3FFF                    MOVWI -1[FSR1]           
    2063    80E           3FFF                    MOVWI -1[FSR1]           
    2064    80F           3FFF                    MOVWI -1[FSR1]           
    2065    810           3FFF                    MOVWI -1[FSR1]           
    2066    811           3FFF                    MOVWI -1[FSR1]           
    2067    812           3FFF                    MOVWI -1[FSR1]           
    2068    813           3FFF                    MOVWI -1[FSR1]           
    2069    814           3FFF                    MOVWI -1[FSR1]           
    2070    815           3FFF                    MOVWI -1[FSR1]           
    2071    816           3FFF                    MOVWI -1[FSR1]           
    2072    817           3FFF                    MOVWI -1[FSR1]           
    2073    818           3FFF                    MOVWI -1[FSR1]           
    2074    819           3FFF                    MOVWI -1[FSR1]           
    2075    81A           3FFF                    MOVWI -1[FSR1]           
    2076    81B           3FFF                    MOVWI -1[FSR1]           
    2077    81C           3FFF                    MOVWI -1[FSR1]           
    2078    81D           3FFF                    MOVWI -1[FSR1]           
    2079    81E           3FFF                    MOVWI -1[FSR1]           
    2080    81F           3FFF                    MOVWI -1[FSR1]           
    2081    820           3FFF                    MOVWI -1[FSR1]           
    2082    821           3FFF                    MOVWI -1[FSR1]           
    2083    822           3FFF                    MOVWI -1[FSR1]           
    2084    823           3FFF                    MOVWI -1[FSR1]           
    2085    824           3FFF                    MOVWI -1[FSR1]           
    2086    825           3FFF                    MOVWI -1[FSR1]           
    2087    826           3FFF                    MOVWI -1[FSR1]           
    2088    827           3FFF                    MOVWI -1[FSR1]           
    2089    828           3FFF                    MOVWI -1[FSR1]           
    2090    829           3FFF                    MOVWI -1[FSR1]           
    2091    82A           3FFF                    MOVWI -1[FSR1]           
    2092    82B           3FFF                    MOVWI -1[FSR1]           
    2093    82C           3FFF                    MOVWI -1[FSR1]           
    2094    82D           3FFF                    MOVWI -1[FSR1]           
    2095    82E           3FFF                    MOVWI -1[FSR1]           
    2096    82F           3FFF                    MOVWI -1[FSR1]           
    2097    830           3FFF                    MOVWI -1[FSR1]           
    2098    831           3FFF                    MOVWI -1[FSR1]           
    2099    832           3FFF                    MOVWI -1[FSR1]           
    2100    833           3FFF                    MOVWI -1[FSR1]           
    2101    834           3FFF                    MOVWI -1[FSR1]           
    2102    835           3FFF                    MOVWI -1[FSR1]           
    2103    836           3FFF                    MOVWI -1[FSR1]           
    2104    837           3FFF                    MOVWI -1[FSR1]           
    2105    838           3FFF                    MOVWI -1[FSR1]           
    2106    839           3FFF                    MOVWI -1[FSR1]           
    2107    83A           3FFF                    MOVWI -1[FSR1]           
    2108    83B           3FFF                    MOVWI -1[FSR1]           
    2109    83C           3FFF                    MOVWI -1[FSR1]           
    2110    83D           3FFF                    MOVWI -1[FSR1]           
    2111    83E           3FFF                    MOVWI -1[FSR1]           
    2112    83F           3FFF                    MOVWI -1[FSR1]           
    2113    840           3FFF                    MOVWI -1[FSR1]           
    2114    841           3FFF                    MOVWI -1[FSR1]           
    2115    842           3FFF                    MOVWI -1[FSR1]           
    2116    843           3FFF                    MOVWI -1[FSR1]           
    2117    844           3FFF                    MOVWI -1[FSR1]           
    2118    845           3FFF                    MOVWI -1[FSR1]           
    2119    846           3FFF                    MOVWI -1[FSR1]           
    2120    847           3FFF                    MOVWI -1[FSR1]           
    2121    848           3FFF                    MOVWI -1[FSR1]           
    2122    849           3FFF                    MOVWI -1[FSR1]           
    2123    84A           3FFF                    MOVWI -1[FSR1]           
    2124    84B           3FFF                    MOVWI -1[FSR1]           
    2125    84C           3FFF                    MOVWI -1[FSR1]           
    2126    84D           3FFF                    MOVWI -1[FSR1]           
    2127    84E           3FFF                    MOVWI -1[FSR1]           
    2128    84F           3FFF                    MOVWI -1[FSR1]           
    2129    850           3FFF                    MOVWI -1[FSR1]           
    2130    851           3FFF                    MOVWI -1[FSR1]           
    2131    852           3FFF                    MOVWI -1[FSR1]           
    2132    853           3FFF                    MOVWI -1[FSR1]           
    2133    854           3FFF                    MOVWI -1[FSR1]           
    2134    855           3FFF                    MOVWI -1[FSR1]           
    2135    856           3FFF                    MOVWI -1[FSR1]           
    2136    857           3FFF                    MOVWI -1[FSR1]           
    2137    858           3FFF                    MOVWI -1[FSR1]           
    2138    859           3FFF                    MOVWI -1[FSR1]           
    2139    85A           3FFF                    MOVWI -1[FSR1]           
    2140    85B           3FFF                    MOVWI -1[FSR1]           
    2141    85C           3FFF                    MOVWI -1[FSR1]           
    2142    85D           3FFF                    MOVWI -1[FSR1]           
    2143    85E           3FFF                    MOVWI -1[FSR1]           
    2144    85F           3FFF                    MOVWI -1[FSR1]           
    2145    860           3FFF                    MOVWI -1[FSR1]           
    2146    861           3FFF                    MOVWI -1[FSR1]           
    2147    862           3FFF                    MOVWI -1[FSR1]           
    2148    863           3FFF                    MOVWI -1[FSR1]           
    2149    864           3FFF                    MOVWI -1[FSR1]           
    2150    865           3FFF                    MOVWI -1[FSR1]           
    2151    866           3FFF                    MOVWI -1[FSR1]           
    2152    867           3FFF                    MOVWI -1[FSR1]           
    2153    868           3FFF                    MOVWI -1[FSR1]           
    2154    869           3FFF                    MOVWI -1[FSR1]           
    2155    86A           3FFF                    MOVWI -1[FSR1]           
    2156    86B           3FFF                    MOVWI -1[FSR1]           
    2157    86C           3FFF                    MOVWI -1[FSR1]           
    2158    86D           3FFF                    MOVWI -1[FSR1]           
    2159    86E           3FFF                    MOVWI -1[FSR1]           
    2160    86F           3FFF                    MOVWI -1[FSR1]           
    2161    870           3FFF                    MOVWI -1[FSR1]           
    2162    871           3FFF                    MOVWI -1[FSR1]           
    2163    872           3FFF                    MOVWI -1[FSR1]           
    2164    873           3FFF                    MOVWI -1[FSR1]           
    2165    874           3FFF                    MOVWI -1[FSR1]           
    2166    875           3FFF                    MOVWI -1[FSR1]           
    2167    876           3FFF                    MOVWI -1[FSR1]           
    2168    877           3FFF                    MOVWI -1[FSR1]           
    2169    878           3FFF                    MOVWI -1[FSR1]           
    2170    879           3FFF                    MOVWI -1[FSR1]           
    2171    87A           3FFF                    MOVWI -1[FSR1]           
    2172    87B           3FFF                    MOVWI -1[FSR1]           
    2173    87C           3FFF                    MOVWI -1[FSR1]           
    2174    87D           3FFF                    MOVWI -1[FSR1]           
    2175    87E           3FFF                    MOVWI -1[FSR1]           
    2176    87F           3FFF                    MOVWI -1[FSR1]           
    2177    880           3FFF                    MOVWI -1[FSR1]           
    2178    881           3FFF                    MOVWI -1[FSR1]           
    2179    882           3FFF                    MOVWI -1[FSR1]           
    2180    883           3FFF                    MOVWI -1[FSR1]           
    2181    884           3FFF                    MOVWI -1[FSR1]           
    2182    885           3FFF                    MOVWI -1[FSR1]           
    2183    886           3FFF                    MOVWI -1[FSR1]           
    2184    887           3FFF                    MOVWI -1[FSR1]           
    2185    888           3FFF                    MOVWI -1[FSR1]           
    2186    889           3FFF                    MOVWI -1[FSR1]           
    2187    88A           3FFF                    MOVWI -1[FSR1]           
    2188    88B           3FFF                    MOVWI -1[FSR1]           
    2189    88C           3FFF                    MOVWI -1[FSR1]           
    2190    88D           3FFF                    MOVWI -1[FSR1]           
    2191    88E           3FFF                    MOVWI -1[FSR1]           
    2192    88F           3FFF                    MOVWI -1[FSR1]           
    2193    890           3FFF                    MOVWI -1[FSR1]           
    2194    891           3FFF                    MOVWI -1[FSR1]           
    2195    892           3FFF                    MOVWI -1[FSR1]           
    2196    893           3FFF                    MOVWI -1[FSR1]           
    2197    894           3FFF                    MOVWI -1[FSR1]           
    2198    895           3FFF                    MOVWI -1[FSR1]           
    2199    896           3FFF                    MOVWI -1[FSR1]           
    2200    897           3FFF                    MOVWI -1[FSR1]           
    2201    898           3FFF                    MOVWI -1[FSR1]           
    2202    899           3FFF                    MOVWI -1[FSR1]           
    2203    89A           3FFF                    MOVWI -1[FSR1]           
    2204    89B           3FFF                    MOVWI -1[FSR1]           
    2205    89C           3FFF                    MOVWI -1[FSR1]           
    2206    89D           3FFF                    MOVWI -1[FSR1]           
    2207    89E           3FFF                    MOVWI -1[FSR1]           
    2208    89F           3FFF                    MOVWI -1[FSR1]           
    2209    8A0           3FFF                    MOVWI -1[FSR1]           
    2210    8A1           3FFF                    MOVWI -1[FSR1]           
    2211    8A2           3FFF                    MOVWI -1[FSR1]           
    2212    8A3           3FFF                    MOVWI -1[FSR1]           
    2213    8A4           3FFF                    MOVWI -1[FSR1]           
    2214    8A5           3FFF                    MOVWI -1[FSR1]           
    2215    8A6           3FFF                    MOVWI -1[FSR1]           
    2216    8A7           3FFF                    MOVWI -1[FSR1]           
    2217    8A8           3FFF                    MOVWI -1[FSR1]           
    2218    8A9           3FFF                    MOVWI -1[FSR1]           
    2219    8AA           3FFF                    MOVWI -1[FSR1]           
    2220    8AB           3FFF                    MOVWI -1[FSR1]           
    2221    8AC           3FFF                    MOVWI -1[FSR1]           
    2222    8AD           3FFF                    MOVWI -1[FSR1]           
    2223    8AE           3FFF                    MOVWI -1[FSR1]           
    2224    8AF           3FFF                    MOVWI -1[FSR1]           
    2225    8B0           3FFF                    MOVWI -1[FSR1]           
    2226    8B1           3FFF                    MOVWI -1[FSR1]           
    2227    8B2           3FFF                    MOVWI -1[FSR1]           
    2228    8B3           3FFF                    MOVWI -1[FSR1]           
    2229    8B4           3FFF                    MOVWI -1[FSR1]           
    2230    8B5           3FFF                    MOVWI -1[FSR1]           
    2231    8B6           3FFF                    MOVWI -1[FSR1]           
    2232    8B7           3FFF                    MOVWI -1[FSR1]           
    2233    8B8           3FFF                    MOVWI -1[FSR1]           
    2234    8B9           3FFF                    MOVWI -1[FSR1]           
    2235    8BA           3FFF                    MOVWI -1[FSR1]           
    2236    8BB           3FFF                    MOVWI -1[FSR1]           
    2237    8BC           3FFF                    MOVWI -1[FSR1]           
    2238    8BD           3FFF                    MOVWI -1[FSR1]           
    2239    8BE           3FFF                    MOVWI -1[FSR1]           
    2240    8BF           3FFF                    MOVWI -1[FSR1]           
    2241    8C0           3FFF                    MOVWI -1[FSR1]           
    2242    8C1           3FFF                    MOVWI -1[FSR1]           
    2243    8C2           3FFF                    MOVWI -1[FSR1]           
    2244    8C3           3FFF                    MOVWI -1[FSR1]           
    2245    8C4           3FFF                    MOVWI -1[FSR1]           
    2246    8C5           3FFF                    MOVWI -1[FSR1]           
    2247    8C6           3FFF                    MOVWI -1[FSR1]           
    2248    8C7           3FFF                    MOVWI -1[FSR1]           
    2249    8C8           3FFF                    MOVWI -1[FSR1]           
    2250    8C9           3FFF                    MOVWI -1[FSR1]           
    2251    8CA           3FFF                    MOVWI -1[FSR1]           
    2252    8CB           3FFF                    MOVWI -1[FSR1]           
    2253    8CC           3FFF                    MOVWI -1[FSR1]           
    2254    8CD           3FFF                    MOVWI -1[FSR1]           
    2255    8CE           3FFF                    MOVWI -1[FSR1]           
    2256    8CF           3FFF                    MOVWI -1[FSR1]           
    2257    8D0           3FFF                    MOVWI -1[FSR1]           
    2258    8D1           3FFF                    MOVWI -1[FSR1]           
    2259    8D2           3FFF                    MOVWI -1[FSR1]           
    2260    8D3           3FFF                    MOVWI -1[FSR1]           
    2261    8D4           3FFF                    MOVWI -1[FSR1]           
    2262    8D5           3FFF                    MOVWI -1[FSR1]           
    2263    8D6           3FFF                    MOVWI -1[FSR1]           
    2264    8D7           3FFF                    MOVWI -1[FSR1]           
    2265    8D8           3FFF                    MOVWI -1[FSR1]           
    2266    8D9           3FFF                    MOVWI -1[FSR1]           
    2267    8DA           3FFF                    MOVWI -1[FSR1]           
    2268    8DB           3FFF                    MOVWI -1[FSR1]           
    2269    8DC           3FFF                    MOVWI -1[FSR1]           
    2270    8DD           3FFF                    MOVWI -1[FSR1]           
    2271    8DE           3FFF                    MOVWI -1[FSR1]           
    2272    8DF           3FFF                    MOVWI -1[FSR1]           
    2273    8E0           3FFF                    MOVWI -1[FSR1]           
    2274    8E1           3FFF                    MOVWI -1[FSR1]           
    2275    8E2           3FFF                    MOVWI -1[FSR1]           
    2276    8E3           3FFF                    MOVWI -1[FSR1]           
    2277    8E4           3FFF                    MOVWI -1[FSR1]           
    2278    8E5           3FFF                    MOVWI -1[FSR1]           
    2279    8E6           3FFF                    MOVWI -1[FSR1]           
    2280    8E7           3FFF                    MOVWI -1[FSR1]           
    2281    8E8           3FFF                    MOVWI -1[FSR1]           
    2282    8E9           3FFF                    MOVWI -1[FSR1]           
    2283    8EA           3FFF                    MOVWI -1[FSR1]           
    2284    8EB           3FFF                    MOVWI -1[FSR1]           
    2285    8EC           3FFF                    MOVWI -1[FSR1]           
    2286    8ED           3FFF                    MOVWI -1[FSR1]           
    2287    8EE           3FFF                    MOVWI -1[FSR1]           
    2288    8EF           3FFF                    MOVWI -1[FSR1]           
    2289    8F0           3FFF                    MOVWI -1[FSR1]           
    2290    8F1           3FFF                    MOVWI -1[FSR1]           
    2291    8F2           3FFF                    MOVWI -1[FSR1]           
    2292    8F3           3FFF                    MOVWI -1[FSR1]           
    2293    8F4           3FFF                    MOVWI -1[FSR1]           
    2294    8F5           3FFF                    MOVWI -1[FSR1]           
    2295    8F6           3FFF                    MOVWI -1[FSR1]           
    2296    8F7           3FFF                    MOVWI -1[FSR1]           
    2297    8F8           3FFF                    MOVWI -1[FSR1]           
    2298    8F9           3FFF                    MOVWI -1[FSR1]           
    2299    8FA           3FFF                    MOVWI -1[FSR1]           
    2300    8FB           3FFF                    MOVWI -1[FSR1]           
    2301    8FC           3FFF                    MOVWI -1[FSR1]           
    2302    8FD           3FFF                    MOVWI -1[FSR1]           
    2303    8FE           3FFF                    MOVWI -1[FSR1]           
    2304    8FF           3FFF                    MOVWI -1[FSR1]           
    2305    900           3FFF                    MOVWI -1[FSR1]           
    2306    901           3FFF                    MOVWI -1[FSR1]           
    2307    902           3FFF                    MOVWI -1[FSR1]           
    2308    903           3FFF                    MOVWI -1[FSR1]           
    2309    904           3FFF                    MOVWI -1[FSR1]           
    2310    905           3FFF                    MOVWI -1[FSR1]           
    2311    906           3FFF                    MOVWI -1[FSR1]           
    2312    907           3FFF                    MOVWI -1[FSR1]           
    2313    908           3FFF                    MOVWI -1[FSR1]           
    2314    909           3FFF                    MOVWI -1[FSR1]           
    2315    90A           3FFF                    MOVWI -1[FSR1]           
    2316    90B           3FFF                    MOVWI -1[FSR1]           
    2317    90C           3FFF                    MOVWI -1[FSR1]           
    2318    90D           3FFF                    MOVWI -1[FSR1]           
    2319    90E           3FFF                    MOVWI -1[FSR1]           
    2320    90F           3FFF                    MOVWI -1[FSR1]           
    2321    910           3FFF                    MOVWI -1[FSR1]           
    2322    911           3FFF                    MOVWI -1[FSR1]           
    2323    912           3FFF                    MOVWI -1[FSR1]           
    2324    913           3FFF                    MOVWI -1[FSR1]           
    2325    914           3FFF                    MOVWI -1[FSR1]           
    2326    915           3FFF                    MOVWI -1[FSR1]           
    2327    916           3FFF                    MOVWI -1[FSR1]           
    2328    917           3FFF                    MOVWI -1[FSR1]           
    2329    918           3FFF                    MOVWI -1[FSR1]           
    2330    919           3FFF                    MOVWI -1[FSR1]           
    2331    91A           3FFF                    MOVWI -1[FSR1]           
    2332    91B           3FFF                    MOVWI -1[FSR1]           
    2333    91C           3FFF                    MOVWI -1[FSR1]           
    2334    91D           3FFF                    MOVWI -1[FSR1]           
    2335    91E           3FFF                    MOVWI -1[FSR1]           
    2336    91F           3FFF                    MOVWI -1[FSR1]           
    2337    920           3FFF                    MOVWI -1[FSR1]           
    2338    921           3FFF                    MOVWI -1[FSR1]           
    2339    922           3FFF                    MOVWI -1[FSR1]           
    2340    923           3FFF                    MOVWI -1[FSR1]           
    2341    924           3FFF                    MOVWI -1[FSR1]           
    2342    925           3FFF                    MOVWI -1[FSR1]           
    2343    926           3FFF                    MOVWI -1[FSR1]           
    2344    927           3FFF                    MOVWI -1[FSR1]           
    2345    928           3FFF                    MOVWI -1[FSR1]           
    2346    929           3FFF                    MOVWI -1[FSR1]           
    2347    92A           3FFF                    MOVWI -1[FSR1]           
    2348    92B           3FFF                    MOVWI -1[FSR1]           
    2349    92C           3FFF                    MOVWI -1[FSR1]           
    2350    92D           3FFF                    MOVWI -1[FSR1]           
    2351    92E           3FFF                    MOVWI -1[FSR1]           
    2352    92F           3FFF                    MOVWI -1[FSR1]           
    2353    930           3FFF                    MOVWI -1[FSR1]           
    2354    931           3FFF                    MOVWI -1[FSR1]           
    2355    932           3FFF                    MOVWI -1[FSR1]           
    2356    933           3FFF                    MOVWI -1[FSR1]           
    2357    934           3FFF                    MOVWI -1[FSR1]           
    2358    935           3FFF                    MOVWI -1[FSR1]           
    2359    936           3FFF                    MOVWI -1[FSR1]           
    2360    937           3FFF                    MOVWI -1[FSR1]           
    2361    938           3FFF                    MOVWI -1[FSR1]           
    2362    939           3FFF                    MOVWI -1[FSR1]           
    2363    93A           3FFF                    MOVWI -1[FSR1]           
    2364    93B           3FFF                    MOVWI -1[FSR1]           
    2365    93C           3FFF                    MOVWI -1[FSR1]           
    2366    93D           3FFF                    MOVWI -1[FSR1]           
    2367    93E           3FFF                    MOVWI -1[FSR1]           
    2368    93F           3FFF                    MOVWI -1[FSR1]           
    2369    940           3FFF                    MOVWI -1[FSR1]           
    2370    941           3FFF                    MOVWI -1[FSR1]           
    2371    942           3FFF                    MOVWI -1[FSR1]           
    2372    943           3FFF                    MOVWI -1[FSR1]           
    2373    944           3FFF                    MOVWI -1[FSR1]           
    2374    945           3FFF                    MOVWI -1[FSR1]           
    2375    946           3FFF                    MOVWI -1[FSR1]           
    2376    947           3FFF                    MOVWI -1[FSR1]           
    2377    948           3FFF                    MOVWI -1[FSR1]           
    2378    949           3FFF                    MOVWI -1[FSR1]           
    2379    94A           3FFF                    MOVWI -1[FSR1]           
    2380    94B           3FFF                    MOVWI -1[FSR1]           
    2381    94C           3FFF                    MOVWI -1[FSR1]           
    2382    94D           3FFF                    MOVWI -1[FSR1]           
    2383    94E           3FFF                    MOVWI -1[FSR1]           
    2384    94F           3FFF                    MOVWI -1[FSR1]           
    2385    950           3FFF                    MOVWI -1[FSR1]           
    2386    951           3FFF                    MOVWI -1[FSR1]           
    2387    952           3FFF                    MOVWI -1[FSR1]           
    2388    953           3FFF                    MOVWI -1[FSR1]           
    2389    954           3FFF                    MOVWI -1[FSR1]           
    2390    955           3FFF                    MOVWI -1[FSR1]           
    2391    956           3FFF                    MOVWI -1[FSR1]           
    2392    957           3FFF                    MOVWI -1[FSR1]           
    2393    958           3FFF                    MOVWI -1[FSR1]           
    2394    959           3FFF                    MOVWI -1[FSR1]           
    2395    95A           3FFF                    MOVWI -1[FSR1]           
    2396    95B           3FFF                    MOVWI -1[FSR1]           
    2397    95C           3FFF                    MOVWI -1[FSR1]           
    2398    95D           3FFF                    MOVWI -1[FSR1]           
    2399    95E           3FFF                    MOVWI -1[FSR1]           
    2400    95F           3FFF                    MOVWI -1[FSR1]           
    2401    960           3FFF                    MOVWI -1[FSR1]           
    2402    961           3FFF                    MOVWI -1[FSR1]           
    2403    962           3FFF                    MOVWI -1[FSR1]           
    2404    963           3FFF                    MOVWI -1[FSR1]           
    2405    964           3FFF                    MOVWI -1[FSR1]           
    2406    965           3FFF                    MOVWI -1[FSR1]           
    2407    966           3FFF                    MOVWI -1[FSR1]           
    2408    967           3FFF                    MOVWI -1[FSR1]           
    2409    968           3FFF                    MOVWI -1[FSR1]           
    2410    969           3FFF                    MOVWI -1[FSR1]           
    2411    96A           3FFF                    MOVWI -1[FSR1]           
    2412    96B           3FFF                    MOVWI -1[FSR1]           
    2413    96C           3FFF                    MOVWI -1[FSR1]           
    2414    96D           3FFF                    MOVWI -1[FSR1]           
    2415    96E           3FFF                    MOVWI -1[FSR1]           
    2416    96F           3FFF                    MOVWI -1[FSR1]           
    2417    970           3FFF                    MOVWI -1[FSR1]           
    2418    971           3FFF                    MOVWI -1[FSR1]           
    2419    972           3FFF                    MOVWI -1[FSR1]           
    2420    973           3FFF                    MOVWI -1[FSR1]           
    2421    974           3FFF                    MOVWI -1[FSR1]           
    2422    975           3FFF                    MOVWI -1[FSR1]           
    2423    976           3FFF                    MOVWI -1[FSR1]           
    2424    977           3FFF                    MOVWI -1[FSR1]           
    2425    978           3FFF                    MOVWI -1[FSR1]           
    2426    979           3FFF                    MOVWI -1[FSR1]           
    2427    97A           3FFF                    MOVWI -1[FSR1]           
    2428    97B           3FFF                    MOVWI -1[FSR1]           
    2429    97C           3FFF                    MOVWI -1[FSR1]           
    2430    97D           3FFF                    MOVWI -1[FSR1]           
    2431    97E           3FFF                    MOVWI -1[FSR1]           
    2432    97F           3FFF                    MOVWI -1[FSR1]           
    2433    980           3FFF                    MOVWI -1[FSR1]           
    2434    981           3FFF                    MOVWI -1[FSR1]           
    2435    982           3FFF                    MOVWI -1[FSR1]           
    2436    983           3FFF                    MOVWI -1[FSR1]           
    2437    984           3FFF                    MOVWI -1[FSR1]           
    2438    985           3FFF                    MOVWI -1[FSR1]           
    2439    986           3FFF                    MOVWI -1[FSR1]           
    2440    987           3FFF                    MOVWI -1[FSR1]           
    2441    988           3FFF                    MOVWI -1[FSR1]           
    2442    989           3FFF                    MOVWI -1[FSR1]           
    2443    98A           3FFF                    MOVWI -1[FSR1]           
    2444    98B           3FFF                    MOVWI -1[FSR1]           
    2445    98C           3FFF                    MOVWI -1[FSR1]           
    2446    98D           3FFF                    MOVWI -1[FSR1]           
    2447    98E           3FFF                    MOVWI -1[FSR1]           
    2448    98F           3FFF                    MOVWI -1[FSR1]           
    2449    990           3FFF                    MOVWI -1[FSR1]           
    2450    991           3FFF                    MOVWI -1[FSR1]           
    2451    992           3FFF                    MOVWI -1[FSR1]           
    2452    993           3FFF                    MOVWI -1[FSR1]           
    2453    994           3FFF                    MOVWI -1[FSR1]           
    2454    995           3FFF                    MOVWI -1[FSR1]           
    2455    996           3FFF                    MOVWI -1[FSR1]           
    2456    997           3FFF                    MOVWI -1[FSR1]           
    2457    998           3FFF                    MOVWI -1[FSR1]           
    2458    999           3FFF                    MOVWI -1[FSR1]           
    2459    99A           3FFF                    MOVWI -1[FSR1]           
    2460    99B           3FFF                    MOVWI -1[FSR1]           
    2461    99C           3FFF                    MOVWI -1[FSR1]           
    2462    99D           3FFF                    MOVWI -1[FSR1]           
    2463    99E           3FFF                    MOVWI -1[FSR1]           
    2464    99F           3FFF                    MOVWI -1[FSR1]           
    2465    9A0           3FFF                    MOVWI -1[FSR1]           
    2466    9A1           3FFF                    MOVWI -1[FSR1]           
    2467    9A2           3FFF                    MOVWI -1[FSR1]           
    2468    9A3           3FFF                    MOVWI -1[FSR1]           
    2469    9A4           3FFF                    MOVWI -1[FSR1]           
    2470    9A5           3FFF                    MOVWI -1[FSR1]           
    2471    9A6           3FFF                    MOVWI -1[FSR1]           
    2472    9A7           3FFF                    MOVWI -1[FSR1]           
    2473    9A8           3FFF                    MOVWI -1[FSR1]           
    2474    9A9           3FFF                    MOVWI -1[FSR1]           
    2475    9AA           3FFF                    MOVWI -1[FSR1]           
    2476    9AB           3FFF                    MOVWI -1[FSR1]           
    2477    9AC           3FFF                    MOVWI -1[FSR1]           
    2478    9AD           3FFF                    MOVWI -1[FSR1]           
    2479    9AE           3FFF                    MOVWI -1[FSR1]           
    2480    9AF           3FFF                    MOVWI -1[FSR1]           
    2481    9B0           3FFF                    MOVWI -1[FSR1]           
    2482    9B1           3FFF                    MOVWI -1[FSR1]           
    2483    9B2           3FFF                    MOVWI -1[FSR1]           
    2484    9B3           3FFF                    MOVWI -1[FSR1]           
    2485    9B4           3FFF                    MOVWI -1[FSR1]           
    2486    9B5           3FFF                    MOVWI -1[FSR1]           
    2487    9B6           3FFF                    MOVWI -1[FSR1]           
    2488    9B7           3FFF                    MOVWI -1[FSR1]           
    2489    9B8           3FFF                    MOVWI -1[FSR1]           
    2490    9B9           3FFF                    MOVWI -1[FSR1]           
    2491    9BA           3FFF                    MOVWI -1[FSR1]           
    2492    9BB           3FFF                    MOVWI -1[FSR1]           
    2493    9BC           3FFF                    MOVWI -1[FSR1]           
    2494    9BD           3FFF                    MOVWI -1[FSR1]           
    2495    9BE           3FFF                    MOVWI -1[FSR1]           
    2496    9BF           3FFF                    MOVWI -1[FSR1]           
    2497    9C0           3FFF                    MOVWI -1[FSR1]           
    2498    9C1           3FFF                    MOVWI -1[FSR1]           
    2499    9C2           3FFF                    MOVWI -1[FSR1]           
    2500    9C3           3FFF                    MOVWI -1[FSR1]           
    2501    9C4           3FFF                    MOVWI -1[FSR1]           
    2502    9C5           3FFF                    MOVWI -1[FSR1]           
    2503    9C6           3FFF                    MOVWI -1[FSR1]           
    2504    9C7           3FFF                    MOVWI -1[FSR1]           
    2505    9C8           3FFF                    MOVWI -1[FSR1]           
    2506    9C9           3FFF                    MOVWI -1[FSR1]           
    2507    9CA           3FFF                    MOVWI -1[FSR1]           
    2508    9CB           3FFF                    MOVWI -1[FSR1]           
    2509    9CC           3FFF                    MOVWI -1[FSR1]           
    2510    9CD           3FFF                    MOVWI -1[FSR1]           
    2511    9CE           3FFF                    MOVWI -1[FSR1]           
    2512    9CF           3FFF                    MOVWI -1[FSR1]           
    2513    9D0           3FFF                    MOVWI -1[FSR1]           
    2514    9D1           3FFF                    MOVWI -1[FSR1]           
    2515    9D2           3FFF                    MOVWI -1[FSR1]           
    2516    9D3           3FFF                    MOVWI -1[FSR1]           
    2517    9D4           3FFF                    MOVWI -1[FSR1]           
    2518    9D5           3FFF                    MOVWI -1[FSR1]           
    2519    9D6           3FFF                    MOVWI -1[FSR1]           
    2520    9D7           3FFF                    MOVWI -1[FSR1]           
    2521    9D8           3FFF                    MOVWI -1[FSR1]           
    2522    9D9           3FFF                    MOVWI -1[FSR1]           
    2523    9DA           3FFF                    MOVWI -1[FSR1]           
    2524    9DB           3FFF                    MOVWI -1[FSR1]           
    2525    9DC           3FFF                    MOVWI -1[FSR1]           
    2526    9DD           3FFF                    MOVWI -1[FSR1]           
    2527    9DE           3FFF                    MOVWI -1[FSR1]           
    2528    9DF           3FFF                    MOVWI -1[FSR1]           
    2529    9E0           3FFF                    MOVWI -1[FSR1]           
    2530    9E1           3FFF                    MOVWI -1[FSR1]           
    2531    9E2           3FFF                    MOVWI -1[FSR1]           
    2532    9E3           34F4                    RETLW 0xF4               
    2533    9E4           3401                    RETLW 0x1                
    2534    9E5           343D                    RETLW 0x3D               
    2535    9E6           3400                    RETLW 0x0                
    2536    9E7           34FF                    RETLW 0xFF               
    2537    9E8           0064                    CLRWDT                   
    2538    9E9           0180                    CLRF INDF0               
    2539    9EA           3101                    ADDFSR 0, 1              
    2540    9EB           0B89                    DECFSZ WREG, F           
    2541    9EC           29E9                    GOTO 0x1E9               
    2542    9ED           3400                    RETLW 0x0                
    2543    9EE           00F0                    MOVWF 0x70               
    2544    9EF           0023                    MOVLB 0x3                
    2545    9F0           1C9E                    BTFSS 0x1E, 0x1          
    2546    9F1           29EF                    GOTO 0x1EF               
    2547    9F2           0870                    MOVF 0x70, W             
    2548    9F3           009A                    MOVWF TMR2               
    2549    9F4           0008                    RETURN                   
    2550    9F5           00F0                    MOVWF 0x70               
    2551    9F6           0024                    MOVLB 0x4                
    2552    9F7           1395                    BCF TMR0, 0x7            
    2553    9F8           0870                    MOVF 0x70, W             
    2554    9F9           0091                    MOVWF PIR1               
    2555    9FA           1B95                    BTFSC TMR0, 0x7          
    2556    9FB           29F6                    GOTO 0x1F6               
    2557    9FC           1615                    BSF TMR0, 0x4            
    2558    9FD           0008                    RETURN                   
    2559    9FE           30D0                    MOVLW 0xD0               
    2560    9FF           0021                    MOVLB 0x1                
    2561    A00           009E                    MOVWF 0x1E               
    2562    A01           3001                    MOVLW 0x1                
    2563    A02           009D                    MOVWF 0x1D               
    2564    A03           0020                    MOVLB 0x0                
    2565    A04           110C                    BCF PORTA, 0x2           
    2566    A05           3007                    MOVLW 0x7                
    2567    A06           0021                    MOVLB 0x1                
    2568    A07           0095                    MOVWF TMR0               
    2569    A08           170B                    BSF INTCON, 0x6          
    2570    A09           1591                    BSF PIR1, 0x3            
    2571    A0A           0008                    RETURN                   
    2572    A0B           0021                    MOVLB 0x1                
    2573    A0C           120C                    BCF PORTA, 0x4           
    2574    A0D           0020                    MOVLB 0x0                
    2575    A0E           120C                    BCF PORTA, 0x4           
    2576    A0F           3042                    MOVLW 0x42               
    2577    A10           0B89                    DECFSZ WREG, F           
    2578    A11           2A10                    GOTO 0x210               
    2579    A12           3200                    BRA 0xA13                
    2580    A13           0020                    MOVLB 0x0                
    2581    A14           168C                    BSF PORTA, 0x5           
    2582    A15           3042                    MOVLW 0x42               
    2583    A16           0B89                    DECFSZ WREG, F           
    2584    A17           2A16                    GOTO 0x216               
    2585    A18           3200                    BRA 0xA19                
    2586    A19           0020                    MOVLB 0x0                
    2587    A1A           128C                    BCF PORTA, 0x5           
    2588    A1B           3042                    MOVLW 0x42               
    2589    A1C           0B89                    DECFSZ WREG, F           
    2590    A1D           2A1C                    GOTO 0x21C               
    2591    A1E           3200                    BRA 0xA1F                
    2592    A1F           0008                    RETURN                   
    2593    A20           0021                    MOVLB 0x1                
    2594    A21           120C                    BCF PORTA, 0x4           
    2595    A22           0020                    MOVLB 0x0                
    2596    A23           160C                    BSF PORTA, 0x4           
    2597    A24           3042                    MOVLW 0x42               
    2598    A25           0B89                    DECFSZ WREG, F           
    2599    A26           2A25                    GOTO 0x225               
    2600    A27           3200                    BRA 0xA28                
    2601    A28           0020                    MOVLB 0x0                
    2602    A29           168C                    BSF PORTA, 0x5           
    2603    A2A           3042                    MOVLW 0x42               
    2604    A2B           0B89                    DECFSZ WREG, F           
    2605    A2C           2A2B                    GOTO 0x22B               
    2606    A2D           3200                    BRA 0xA2E                
    2607    A2E           0020                    MOVLB 0x0                
    2608    A2F           128C                    BCF PORTA, 0x5           
    2609    A30           3042                    MOVLW 0x42               
    2610    A31           0B89                    DECFSZ WREG, F           
    2611    A32           2A31                    GOTO 0x231               
    2612    A33           3200                    BRA 0xA34                
    2613    A34           0008                    RETURN                   
    2614    A35           00F1                    MOVWF 0x71               
    2615    A36           3004                    MOVLW 0x4                
    2616    A37           00F0                    MOVWF 0x70               
    2617    A38           0870                    MOVF 0x70, W             
    2618    A39           00F2                    MOVWF 0x72               
    2619    A3A           30FA                    MOVLW 0xFA               
    2620    A3B           00F0                    MOVWF 0x70               
    2621    A3C           0870                    MOVF 0x70, W             
    2622    A3D           00F3                    MOVWF 0x73               
    2623    A3E           3001                    MOVLW 0x1                
    2624    A3F           02F3                    SUBWF 0x73, F            
    2625    A40           1D03                    BTFSS STATUS, 0x2        
    2626    A41           2A3E                    GOTO 0x23E               
    2627    A42           3001                    MOVLW 0x1                
    2628    A43           02F2                    SUBWF 0x72, F            
    2629    A44           1D03                    BTFSS STATUS, 0x2        
    2630    A45           2A3A                    GOTO 0x23A               
    2631    A46           3001                    MOVLW 0x1                
    2632    A47           02F1                    SUBWF 0x71, F            
    2633    A48           1903                    BTFSC STATUS, 0x2        
    2634    A49           0008                    RETURN                   
    2635    A4A           2A36                    GOTO 0x236               
    2636    A4B           0020                    MOVLB 0x0                
    2637    A4C           160C                    BSF PORTA, 0x4           
    2638    A4D           168C                    BSF PORTA, 0x5           
    2639    A4E           0021                    MOVLB 0x1                
    2640    A4F           128C                    BCF PORTA, 0x5           
    2641    A50           120C                    BCF PORTA, 0x4           
    2642    A51           3042                    MOVLW 0x42               
    2643    A52           0B89                    DECFSZ WREG, F           
    2644    A53           2A52                    GOTO 0x252               
    2645    A54           3200                    BRA 0xA55                
    2646    A55           0020                    MOVLB 0x0                
    2647    A56           120C                    BCF PORTA, 0x4           
    2648    A57           3042                    MOVLW 0x42               
    2649    A58           0B89                    DECFSZ WREG, F           
    2650    A59           2A58                    GOTO 0x258               
    2651    A5A           3200                    BRA 0xA5B                
    2652    A5B           0020                    MOVLB 0x0                
    2653    A5C           128C                    BCF PORTA, 0x5           
    2654    A5D           3042                    MOVLW 0x42               
    2655    A5E           0B89                    DECFSZ WREG, F           
    2656    A5F           2A5E                    GOTO 0x25E               
    2657    A60           3200                    BRA 0xA61                
    2658    A61           0008                    RETURN                   
    2659    A62           0021                    MOVLB 0x1                
    2660    A63           120C                    BCF PORTA, 0x4           
    2661    A64           0020                    MOVLB 0x0                
    2662    A65           120C                    BCF PORTA, 0x4           
    2663    A66           3042                    MOVLW 0x42               
    2664    A67           0B89                    DECFSZ WREG, F           
    2665    A68           2A67                    GOTO 0x267               
    2666    A69           3200                    BRA 0xA6A                
    2667    A6A           0020                    MOVLB 0x0                
    2668    A6B           168C                    BSF PORTA, 0x5           
    2669    A6C           3042                    MOVLW 0x42               
    2670    A6D           0B89                    DECFSZ WREG, F           
    2671    A6E           2A6D                    GOTO 0x26D               
    2672    A6F           3200                    BRA 0xA70                
    2673    A70           0020                    MOVLB 0x0                
    2674    A71           160C                    BSF PORTA, 0x4           
    2675    A72           3042                    MOVLW 0x42               
    2676    A73           0B89                    DECFSZ WREG, F           
    2677    A74           2A73                    GOTO 0x273               
    2678    A75           3200                    BRA 0xA76                
    2679    A76           0021                    MOVLB 0x1                
    2680    A77           160C                    BSF PORTA, 0x4           
    2681    A78           168C                    BSF PORTA, 0x5           
    2682    A79           0008                    RETURN                   
    2683    A7A           3010                    MOVLW 0x10               
    2684    A7B           003D                    MOVLB 0x1D               
    2685    A7C           00A0                    MOVWF 0x20               
    2686    A7D           3011                    MOVLW 0x11               
    2687    A7E           00A1                    MOVWF 0x21               
    2688    A7F           0024                    MOVLB 0x4                
    2689    A80           0191                    CLRF PIR1                
    2690    A81           0020                    MOVLB 0x0                
    2691    A82           080E                    MOVF PORTC, W            
    2692    A83           00F1                    MOVWF 0x71               
    2693    A84           3003                    MOVLW 0x3                
    2694    A85           36F1                    LSRF 0x71, F             
    2695    A86           0B89                    DECFSZ WREG, F           
    2696    A87           2A85                    GOTO 0x285               
    2697    A88           0871                    MOVF 0x71, W             
    2698    A89           3907                    ANDLW 0x7                
    2699    A8A           0709                    ADDWF WREG, W            
    2700    A8B           3840                    IORLW 0x40               
    2701    A8C           0024                    MOVLB 0x4                
    2702    A8D           0092                    MOVWF PIR2               
    2703    A8E           3036                    MOVLW 0x36               
    2704    A8F           0095                    MOVWF TMR0               
    2705    A90           1416                    BSF TMR1, 0x0            
    2706    A91           1617                    BSF TMR1H, 0x4           
    2707    A92           1597                    BSF TMR1H, 0x3           
    2708    A93           0812                    MOVF PIR2, W             
    2709    A94           3189                    MOVLP 0x9                
    2710    A95           21EE                    CALL 0x1EE               
    2711    A96           0008                    RETURN                   
    2712    A97           3014                    MOVLW 0x14               
    2713    A98           003D                    MOVLB 0x1D               
    2714    A99           0091                    MOVWF PIR1               
    2715    A9A           0023                    MOVLB 0x3                
    2716    A9B           151E                    BSF 0x1E, 0x2            
    2717    A9C           159F                    BSF 0x1F, 0x3            
    2718    A9D           3022                    MOVLW 0x22               
    2719    A9E           009B                    MOVWF PR2                
    2720    A9F           019C                    CLRF T2CON               
    2721    AA0           121E                    BCF 0x1E, 0x4            
    2722    AA1           179D                    BSF 0x1D, 0x7            
    2723    AA2           169E                    BSF 0x1E, 0x5            
    2724    AA3           3005                    MOVLW 0x5                
    2725    AA4           318A                    MOVLP 0xA                
    2726    AA5           2235                    CALL 0x235               
    2727    AA6           318A                    MOVLP 0xA                
    2728    AA7           3055                    MOVLW 0x55               
    2729    AA8           3189                    MOVLP 0x9                
    2730    AA9           21EE                    CALL 0x1EE               
    2731    AAA           318A                    MOVLP 0xA                
    2732    AAB           3041                    MOVLW 0x41               
    2733    AAC           3189                    MOVLP 0x9                
    2734    AAD           21EE                    CALL 0x1EE               
    2735    AAE           318A                    MOVLP 0xA                
    2736    AAF           3052                    MOVLW 0x52               
    2737    AB0           3189                    MOVLP 0x9                
    2738    AB1           21EE                    CALL 0x1EE               
    2739    AB2           318A                    MOVLP 0xA                
    2740    AB3           3054                    MOVLW 0x54               
    2741    AB4           3189                    MOVLP 0x9                
    2742    AB5           21EE                    CALL 0x1EE               
    2743    AB6           0008                    RETURN                   
    2744    AB7           0020                    MOVLB 0x0                
    2745    AB8           0838                    MOVF 0x38, W             
    2746    AB9           3E02                    ADDLW 0x2                
    2747    ABA           073C                    ADDWF 0x3C, W            
    2748    ABB           00A0                    MOVWF 0x20               
    2749    ABC           0820                    MOVF 0x20, W             
    2750    ABD           0086                    MOVWF FSR1               
    2751    ABE           0187                    CLRF FSR1H               
    2752    ABF           0801                    MOVF INDF1, W            
    2753    AC0           1D03                    BTFSS STATUS, 0x2        
    2754    AC1           2AC4                    GOTO 0x2C4               
    2755    AC2           110C                    BCF PORTA, 0x2           
    2756    AC3           2AC5                    GOTO 0x2C5               
    2757    AC4           150C                    BSF PORTA, 0x2           
    2758    AC5           3015                    MOVLW 0x15               
    2759    AC6           00A0                    MOVWF 0x20               
    2760    AC7           0820                    MOVF 0x20, W             
    2761    AC8           0021                    MOVLB 0x1                
    2762    AC9           00BA                    MOVWF 0x3A               
    2763    ACA           3001                    MOVLW 0x1                
    2764    ACB           0020                    MOVLB 0x0                
    2765    ACC           00A0                    MOVWF 0x20               
    2766    ACD           0820                    MOVF 0x20, W             
    2767    ACE           0021                    MOVLB 0x1                
    2768    ACF           00BB                    MOVWF 0x3B               
    2769    AD0           3002                    MOVLW 0x2                
    2770    AD1           0020                    MOVLB 0x0                
    2771    AD2           00A0                    MOVWF 0x20               
    2772    AD3           0820                    MOVF 0x20, W             
    2773    AD4           00EE                    MOVWF 0x6E               
    2774    AD5           01EC                    CLRF 0x6C                
    2775    AD6           3001                    MOVLW 0x1                
    2776    AD7           00A0                    MOVWF 0x20               
    2777    AD8           0820                    MOVF 0x20, W             
    2778    AD9           00EF                    MOVWF 0x6F               
    2779    ADA           0008                    RETURN                   
    2780    ADB           0021                    MOVLB 0x1                
    2781    ADC           160C                    BSF PORTA, 0x4           
    2782    ADD           3042                    MOVLW 0x42               
    2783    ADE           0B89                    DECFSZ WREG, F           
    2784    ADF           2ADE                    GOTO 0x2DE               
    2785    AE0           3200                    BRA 0xAE1                
    2786    AE1           0020                    MOVLB 0x0                
    2787    AE2           168C                    BSF PORTA, 0x5           
    2788    AE3           3000                    MOVLW 0x0                
    2789    AE4           1A0C                    BTFSC PORTA, 0x4         
    2790    AE5           3001                    MOVLW 0x1                
    2791    AE6           00F0                    MOVWF 0x70               
    2792    AE7           3042                    MOVLW 0x42               
    2793    AE8           0B89                    DECFSZ WREG, F           
    2794    AE9           2AE8                    GOTO 0x2E8               
    2795    AEA           3200                    BRA 0xAEB                
    2796    AEB           0870                    MOVF 0x70, W             
    2797    AEC           1D03                    BTFSS STATUS, 0x2        
    2798    AED           2AF1                    GOTO 0x2F1               
    2799    AEE           0020                    MOVLB 0x0                
    2800    AEF           128C                    BCF PORTA, 0x5           
    2801    AF0           2AF9                    GOTO 0x2F9               
    2802    AF1           0020                    MOVLB 0x0                
    2803    AF2           128C                    BCF PORTA, 0x5           
    2804    AF3           3042                    MOVLW 0x42               
    2805    AF4           0B89                    DECFSZ WREG, F           
    2806    AF5           2AF4                    GOTO 0x2F4               
    2807    AF6           3200                    BRA 0xAF7                
    2808    AF7           0020                    MOVLB 0x0                
    2809    AF8           168C                    BSF PORTA, 0x5           
    2810    AF9           3042                    MOVLW 0x42               
    2811    AFA           0B89                    DECFSZ WREG, F           
    2812    AFB           2AFA                    GOTO 0x2FA               
    2813    AFC           3200                    BRA 0xAFD                
    2814    AFD           0870                    MOVF 0x70, W             
    2815    AFE           0008                    RETURN                   
    2816    AFF           00FA                    MOVWF 0x7A               
    2817    B00           318A                    MOVLP 0xA                
    2818    B01           224B                    CALL 0x24B               
    2819    B02           318A                    MOVLP 0xA                
    2820    B03           357A                    LSLF 0x7A, W             
    2821    B04           318B                    MOVLP 0xB                
    2822    B05           2352                    CALL 0x352               
    2823    B06           318A                    MOVLP 0xA                
    2824    B07           318A                    MOVLP 0xA                
    2825    B08           22DB                    CALL 0x2DB               
    2826    B09           318A                    MOVLP 0xA                
    2827    B0A           3A00                    XORLW 0x0                
    2828    B0B           1903                    BTFSC STATUS, 0x2        
    2829    B0C           2B0F                    GOTO 0x30F               
    2830    B0D           30FF                    MOVLW 0xFF               
    2831    B0E           0008                    RETURN                   
    2832    B0F           0878                    MOVF 0x78, W             
    2833    B10           1903                    BTFSC STATUS, 0x2        
    2834    B11           2B1F                    GOTO 0x31F               
    2835    B12           0878                    MOVF 0x78, W             
    2836    B13           00F9                    MOVWF 0x79               
    2837    B14           0879                    MOVF 0x79, W             
    2838    B15           00F1                    MOVWF 0x71               
    2839    B16           0877                    MOVF 0x77, W             
    2840    B17           318C                    MOVLP 0xC                
    2841    B18           24A6                    CALL 0x4A6               
    2842    B19           318A                    MOVLP 0xA                
    2843    B1A           3A00                    XORLW 0x0                
    2844    B1B           1903                    BTFSC STATUS, 0x2        
    2845    B1C           2B1F                    GOTO 0x31F               
    2846    B1D           30FF                    MOVLW 0xFF               
    2847    B1E           0008                    RETURN                   
    2848    B1F           318A                    MOVLP 0xA                
    2849    B20           2262                    CALL 0x262               
    2850    B21           3000                    MOVLW 0x0                
    2851    B22           0008                    RETURN                   
    2852    B23           01F2                    CLRF 0x72                
    2853    B24           0021                    MOVLB 0x1                
    2854    B25           160C                    BSF PORTA, 0x4           
    2855    B26           3008                    MOVLW 0x8                
    2856    B27           00F0                    MOVWF 0x70               
    2857    B28           0870                    MOVF 0x70, W             
    2858    B29           00F3                    MOVWF 0x73               
    2859    B2A           0873                    MOVF 0x73, W             
    2860    B2B           1903                    BTFSC STATUS, 0x2        
    2861    B2C           2B50                    GOTO 0x350               
    2862    B2D           3042                    MOVLW 0x42               
    2863    B2E           0B89                    DECFSZ WREG, F           
    2864    B2F           2B2E                    GOTO 0x32E               
    2865    B30           3200                    BRA 0xB31                
    2866    B31           0020                    MOVLB 0x0                
    2867    B32           168C                    BSF PORTA, 0x5           
    2868    B33           0E0C                    SWAPF PORTA, W           
    2869    B34           3901                    ANDLW 0x1                
    2870    B35           00F0                    MOVWF 0x70               
    2871    B36           0873                    MOVF 0x73, W             
    2872    B37           3EFF                    ADDLW 0xFF               
    2873    B38           0A89                    INCF WREG, F             
    2874    B39           2B3B                    GOTO 0x33B               
    2875    B3A           35F0                    LSLF 0x70, F             
    2876    B3B           0B89                    DECFSZ WREG, F           
    2877    B3C           2B3A                    GOTO 0x33A               
    2878    B3D           0870                    MOVF 0x70, W             
    2879    B3E           00F1                    MOVWF 0x71               
    2880    B3F           0871                    MOVF 0x71, W             
    2881    B40           04F2                    IORWF 0x72, F            
    2882    B41           3042                    MOVLW 0x42               
    2883    B42           0B89                    DECFSZ WREG, F           
    2884    B43           2B42                    GOTO 0x342               
    2885    B44           3200                    BRA 0xB45                
    2886    B45           0020                    MOVLB 0x0                
    2887    B46           128C                    BCF PORTA, 0x5           
    2888    B47           3042                    MOVLW 0x42               
    2889    B48           0B89                    DECFSZ WREG, F           
    2890    B49           2B48                    GOTO 0x348               
    2891    B4A           3200                    BRA 0xB4B                
    2892    B4B           3001                    MOVLW 0x1                
    2893    B4C           02F3                    SUBWF 0x73, F            
    2894    B4D           0873                    MOVF 0x73, W             
    2895    B4E           1D03                    BTFSS STATUS, 0x2        
    2896    B4F           2B2D                    GOTO 0x32D               
    2897    B50           0872                    MOVF 0x72, W             
    2898    B51           0008                    RETURN                   
    2899    B52           00F1                    MOVWF 0x71               
    2900    B53           0021                    MOVLB 0x1                
    2901    B54           120C                    BCF PORTA, 0x4           
    2902    B55           3008                    MOVLW 0x8                
    2903    B56           00F0                    MOVWF 0x70               
    2904    B57           0870                    MOVF 0x70, W             
    2905    B58           00F2                    MOVWF 0x72               
    2906    B59           0872                    MOVF 0x72, W             
    2907    B5A           1903                    BTFSC STATUS, 0x2        
    2908    B5B           0008                    RETURN                   
    2909    B5C           3001                    MOVLW 0x1                
    2910    B5D           00F0                    MOVWF 0x70               
    2911    B5E           0872                    MOVF 0x72, W             
    2912    B5F           3EFF                    ADDLW 0xFF               
    2913    B60           0A89                    INCF WREG, F             
    2914    B61           2B63                    GOTO 0x363               
    2915    B62           35F0                    LSLF 0x70, F             
    2916    B63           0B89                    DECFSZ WREG, F           
    2917    B64           2B62                    GOTO 0x362               
    2918    B65           0870                    MOVF 0x70, W             
    2919    B66           0571                    ANDWF 0x71, W            
    2920    B67           1903                    BTFSC STATUS, 0x2        
    2921    B68           2B6C                    GOTO 0x36C               
    2922    B69           0020                    MOVLB 0x0                
    2923    B6A           160C                    BSF PORTA, 0x4           
    2924    B6B           2B6E                    GOTO 0x36E               
    2925    B6C           0020                    MOVLB 0x0                
    2926    B6D           120C                    BCF PORTA, 0x4           
    2927    B6E           3042                    MOVLW 0x42               
    2928    B6F           0B89                    DECFSZ WREG, F           
    2929    B70           2B6F                    GOTO 0x36F               
    2930    B71           3200                    BRA 0xB72                
    2931    B72           0020                    MOVLB 0x0                
    2932    B73           168C                    BSF PORTA, 0x5           
    2933    B74           3042                    MOVLW 0x42               
    2934    B75           0B89                    DECFSZ WREG, F           
    2935    B76           2B75                    GOTO 0x375               
    2936    B77           3200                    BRA 0xB78                
    2937    B78           0020                    MOVLB 0x0                
    2938    B79           128C                    BCF PORTA, 0x5           
    2939    B7A           3042                    MOVLW 0x42               
    2940    B7B           0B89                    DECFSZ WREG, F           
    2941    B7C           2B7B                    GOTO 0x37B               
    2942    B7D           3200                    BRA 0xB7E                
    2943    B7E           3001                    MOVLW 0x1                
    2944    B7F           02F2                    SUBWF 0x72, F            
    2945    B80           2B59                    GOTO 0x359               
    2946    B81           0020                    MOVLB 0x0                
    2947    B82           00BC                    MOVWF 0x3C               
    2948    B83           01B8                    CLRF 0x38                
    2949    B84           01B9                    CLRF 0x39                
    2950    B85           01AE                    CLRF 0x2E                
    2951    B86           01AF                    CLRF 0x2F                
    2952    B87           01BD                    CLRF 0x3D                
    2953    B88           01BE                    CLRF 0x3E                
    2954    B89           01BA                    CLRF 0x3A                
    2955    B8A           01BB                    CLRF 0x3B                
    2956    B8B           01B0                    CLRF 0x30                
    2957    B8C           01B1                    CLRF 0x31                
    2958    B8D           01B4                    CLRF 0x34                
    2959    B8E           01B5                    CLRF 0x35                
    2960    B8F           01B6                    CLRF 0x36                
    2961    B90           01B7                    CLRF 0x37                
    2962    B91           01B2                    CLRF 0x32                
    2963    B92           01B3                    CLRF 0x33                
    2964    B93           318F                    MOVLP 0xF                
    2965    B94           2F60                    GOTO 0x760               
    2966    B95           3007                    MOVLW 0x7                
    2967    B96           00A0                    MOVWF 0x20               
    2968    B97           0820                    MOVF 0x20, W             
    2969    B98           0021                    MOVLB 0x1                
    2970    B99           00BA                    MOVWF 0x3A               
    2971    B9A           3001                    MOVLW 0x1                
    2972    B9B           0020                    MOVLB 0x0                
    2973    B9C           00A0                    MOVWF 0x20               
    2974    B9D           0820                    MOVF 0x20, W             
    2975    B9E           0021                    MOVLB 0x1                
    2976    B9F           00BB                    MOVWF 0x3B               
    2977    BA0           3002                    MOVLW 0x2                
    2978    BA1           0020                    MOVLB 0x0                
    2979    BA2           00A0                    MOVWF 0x20               
    2980    BA3           0820                    MOVF 0x20, W             
    2981    BA4           00EE                    MOVWF 0x6E               
    2982    BA5           01EC                    CLRF 0x6C                
    2983    BA6           3001                    MOVLW 0x1                
    2984    BA7           00A0                    MOVWF 0x20               
    2985    BA8           0820                    MOVF 0x20, W             
    2986    BA9           00EF                    MOVWF 0x6F               
    2987    BAA           3001                    MOVLW 0x1                
    2988    BAB           00A0                    MOVWF 0x20               
    2989    BAC           0820                    MOVF 0x20, W             
    2990    BAD           0021                    MOVLB 0x1                
    2991    BAE           00B7                    MOVWF 0x37               
    2992    BAF           0008                    RETURN                   
    2993    BB0           0024                    MOVLB 0x4                
    2994    BB1           0811                    MOVF PIR1, W             
    2995    BB2           00F1                    MOVWF 0x71               
    2996    BB3           0871                    MOVF 0x71, W             
    2997    BB4           00F2                    MOVWF 0x72               
    2998    BB5           0020                    MOVLB 0x0                
    2999    BB6           086F                    MOVF 0x6F, W             
    3000    BB7           1903                    BTFSC STATUS, 0x2        
    3001    BB8           2BD9                    GOTO 0x3D9               
    3002    BB9           086E                    MOVF 0x6E, W             
    3003    BBA           1903                    BTFSC STATUS, 0x2        
    3004    BBB           0008                    RETURN                   
    3005    BBC           086C                    MOVF 0x6C, W             
    3006    BBD           3EBA                    ADDLW 0xBA               
    3007    BBE           0086                    MOVWF FSR1               
    3008    BBF           0187                    CLRF FSR1H               
    3009    BC0           0801                    MOVF INDF1, W            
    3010    BC1           3189                    MOVLP 0x9                
    3011    BC2           21EE                    CALL 0x1EE               
    3012    BC3           318B                    MOVLP 0xB                
    3013    BC4           0020                    MOVLB 0x0                
    3014    BC5           086C                    MOVF 0x6C, W             
    3015    BC6           3EBA                    ADDLW 0xBA               
    3016    BC7           0086                    MOVWF FSR1               
    3017    BC8           0187                    CLRF FSR1H               
    3018    BC9           0801                    MOVF INDF1, W            
    3019    BCA           3189                    MOVLP 0x9                
    3020    BCB           21F5                    CALL 0x1F5               
    3021    BCC           3001                    MOVLW 0x1                
    3022    BCD           00F1                    MOVWF 0x71               
    3023    BCE           0871                    MOVF 0x71, W             
    3024    BCF           0020                    MOVLB 0x0                
    3025    BD0           07EC                    ADDWF 0x6C, F            
    3026    BD1           3001                    MOVLW 0x1                
    3027    BD2           02EE                    SUBWF 0x6E, F            
    3028    BD3           086E                    MOVF 0x6E, W             
    3029    BD4           1903                    BTFSC STATUS, 0x2        
    3030    BD5           01EF                    CLRF 0x6F                
    3031    BD6           0024                    MOVLB 0x4                
    3032    BD7           1615                    BSF TMR0, 0x4            
    3033    BD8           0008                    RETURN                   
    3034    BD9           30FF                    MOVLW 0xFF               
    3035    BDA           3189                    MOVLP 0x9                
    3036    BDB           21F5                    CALL 0x1F5               
    3037    BDC           318B                    MOVLP 0xB                
    3038    BDD           30FF                    MOVLW 0xFF               
    3039    BDE           3189                    MOVLP 0x9                
    3040    BDF           21EE                    CALL 0x1EE               
    3041    BE0           0024                    MOVLB 0x4                
    3042    BE1           1615                    BSF TMR0, 0x4            
    3043    BE2           0008                    RETURN                   
    3044    BE3           00FB                    MOVWF 0x7B               
    3045    BE4           01FA                    CLRF 0x7A                
    3046    BE5           318A                    MOVLP 0xA                
    3047    BE6           224B                    CALL 0x24B               
    3048    BE7           318B                    MOVLP 0xB                
    3049    BE8           1403                    BSF STATUS, 0x0          
    3050    BE9           0D7B                    RLF 0x7B, W              
    3051    BEA           318B                    MOVLP 0xB                
    3052    BEB           2352                    CALL 0x352               
    3053    BEC           318B                    MOVLP 0xB                
    3054    BED           318A                    MOVLP 0xA                
    3055    BEE           22DB                    CALL 0x2DB               
    3056    BEF           318B                    MOVLP 0xB                
    3057    BF0           3A00                    XORLW 0x0                
    3058    BF1           1903                    BTFSC STATUS, 0x2        
    3059    BF2           2BF5                    GOTO 0x3F5               
    3060    BF3           30FF                    MOVLW 0xFF               
    3061    BF4           0008                    RETURN                   
    3062    BF5           318B                    MOVLP 0xB                
    3063    BF6           2323                    CALL 0x323               
    3064    BF7           318B                    MOVLP 0xB                
    3065    BF8           00F9                    MOVWF 0x79               
    3066    BF9           0877                    MOVF 0x77, W             
    3067    BFA           0086                    MOVWF FSR1               
    3068    BFB           0187                    CLRF FSR1H               
    3069    BFC           0879                    MOVF 0x79, W             
    3070    BFD           0081                    MOVWF INDF1              
    3071    BFE           0878                    MOVF 0x78, W             
    3072    BFF           0086                    MOVWF FSR1               
    3073    C00           0187                    CLRF FSR1H               
    3074    C01           0301                    DECF INDF1, W            
    3075    C02           1D03                    BTFSS STATUS, 0x2        
    3076    C03           2C08                    GOTO 0x408               
    3077    C04           318A                    MOVLP 0xA                
    3078    C05           2220                    CALL 0x220               
    3079    C06           318B                    MOVLP 0xB                
    3080    C07           2C18                    GOTO 0x418               
    3081    C08           318A                    MOVLP 0xA                
    3082    C09           220B                    CALL 0x20B               
    3083    C0A           318B                    MOVLP 0xB                
    3084    C0B           0878                    MOVF 0x78, W             
    3085    C0C           0086                    MOVWF FSR1               
    3086    C0D           0187                    CLRF FSR1H               
    3087    C0E           0801                    MOVF INDF1, W            
    3088    C0F           3EFF                    ADDLW 0xFF               
    3089    C10           00F9                    MOVWF 0x79               
    3090    C11           0879                    MOVF 0x79, W             
    3091    C12           00F0                    MOVWF 0x70               
    3092    C13           0877                    MOVF 0x77, W             
    3093    C14           3E01                    ADDLW 0x1                
    3094    C15           3186                    MOVLP 0x6                
    3095    C16           2612                    CALL 0x612               
    3096    C17           318B                    MOVLP 0xB                
    3097    C18           318A                    MOVLP 0xA                
    3098    C19           2262                    CALL 0x262               
    3099    C1A           3000                    MOVLW 0x0                
    3100    C1B           0008                    RETURN                   
    3101    C1C           01F2                    CLRF 0x72                
    3102    C1D           0020                    MOVLB 0x0                
    3103    C1E           1C91                    BTFSS PIR1, 0x1          
    3104    C1F           0008                    RETURN                   
    3105    C20           1091                    BCF PIR1, 0x1            
    3106    C21           019A                    CLRF TMR2                
    3107    C22           3001                    MOVLW 0x1                
    3108    C23           00F1                    MOVWF 0x71               
    3109    C24           0871                    MOVF 0x71, W             
    3110    C25           0021                    MOVLB 0x1                
    3111    C26           07B9                    ADDWF 0x39, F            
    3112    C27           3019                    MOVLW 0x19               
    3113    C28           0239                    SUBWF 0x39, W            
    3114    C29           1C03                    BTFSS STATUS, 0x0        
    3115    C2A           0008                    RETURN                   
    3116    C2B           0020                    MOVLB 0x0                
    3117    C2C           01ED                    CLRF 0x6D                
    3118    C2D           01F2                    CLRF 0x72                
    3119    C2E           3020                    MOVLW 0x20               
    3120    C2F           0272                    SUBWF 0x72, W            
    3121    C30           1803                    BTFSC STATUS, 0x0        
    3122    C31           2C40                    GOTO 0x440               
    3123    C32           0872                    MOVF 0x72, W             
    3124    C33           3E20                    ADDLW 0x20               
    3125    C34           0086                    MOVWF FSR1               
    3126    C35           3001                    MOVLW 0x1                
    3127    C36           0087                    MOVWF FSR1H              
    3128    C37           0181                    CLRF INDF1               
    3129    C38           3001                    MOVLW 0x1                
    3130    C39           00F1                    MOVWF 0x71               
    3131    C3A           0871                    MOVF 0x71, W             
    3132    C3B           07F2                    ADDWF 0x72, F            
    3133    C3C           3020                    MOVLW 0x20               
    3134    C3D           0272                    SUBWF 0x72, W            
    3135    C3E           1C03                    BTFSS STATUS, 0x0        
    3136    C3F           2C32                    GOTO 0x432               
    3137    C40           0020                    MOVLB 0x0                
    3138    C41           111C                    BCF T2CON, 0x2           
    3139    C42           0021                    MOVLB 0x1                
    3140    C43           01B9                    CLRF 0x39                
    3141    C44           3054                    MOVLW 0x54               
    3142    C45           3189                    MOVLP 0x9                
    3143    C46           21EE                    CALL 0x1EE               
    3144    C47           318C                    MOVLP 0xC                
    3145    C48           3049                    MOVLW 0x49               
    3146    C49           3189                    MOVLP 0x9                
    3147    C4A           21EE                    CALL 0x1EE               
    3148    C4B           318C                    MOVLP 0xC                
    3149    C4C           304D                    MOVLW 0x4D               
    3150    C4D           3189                    MOVLP 0x9                
    3151    C4E           21EE                    CALL 0x1EE               
    3152    C4F           318C                    MOVLP 0xC                
    3153    C50           3045                    MOVLW 0x45               
    3154    C51           3189                    MOVLP 0x9                
    3155    C52           21EE                    CALL 0x1EE               
    3156    C53           318C                    MOVLP 0xC                
    3157    C54           3052                    MOVLW 0x52               
    3158    C55           3189                    MOVLP 0x9                
    3159    C56           21EE                    CALL 0x1EE               
    3160    C57           318C                    MOVLP 0xC                
    3161    C58           3032                    MOVLW 0x32               
    3162    C59           3189                    MOVLP 0x9                
    3163    C5A           21EE                    CALL 0x1EE               
    3164    C5B           0008                    RETURN                   
    3165    C5C           0024                    MOVLB 0x4                
    3166    C5D           0811                    MOVF PIR1, W             
    3167    C5E           00F0                    MOVWF 0x70               
    3168    C5F           0870                    MOVF 0x70, W             
    3169    C60           00F2                    MOVWF 0x72               
    3170    C61           0020                    MOVLB 0x0                
    3171    C62           086D                    MOVF 0x6D, W             
    3172    C63           1D03                    BTFSS STATUS, 0x2        
    3173    C64           2C69                    GOTO 0x469               
    3174    C65           3055                    MOVLW 0x55               
    3175    C66           0672                    XORWF 0x72, W            
    3176    C67           1D03                    BTFSS STATUS, 0x2        
    3177    C68           2C70                    GOTO 0x470               
    3178    C69           036D                    DECF 0x6D, W             
    3179    C6A           1D03                    BTFSS STATUS, 0x2        
    3180    C6B           2C76                    GOTO 0x476               
    3181    C6C           30AA                    MOVLW 0xAA               
    3182    C6D           0672                    XORWF 0x72, W            
    3183    C6E           1903                    BTFSC STATUS, 0x2        
    3184    C6F           2C76                    GOTO 0x476               
    3185    C70           01ED                    CLRF 0x6D                
    3186    C71           111C                    BCF T2CON, 0x2           
    3187    C72           019A                    CLRF TMR2                
    3188    C73           0021                    MOVLB 0x1                
    3189    C74           01B9                    CLRF 0x39                
    3190    C75           2CA3                    GOTO 0x4A3               
    3191    C76           0020                    MOVLB 0x0                
    3192    C77           086D                    MOVF 0x6D, W             
    3193    C78           1D03                    BTFSS STATUS, 0x2        
    3194    C79           2C7C                    GOTO 0x47C               
    3195    C7A           019A                    CLRF TMR2                
    3196    C7B           151C                    BSF T2CON, 0x2           
    3197    C7C           0872                    MOVF 0x72, W             
    3198    C7D           00F0                    MOVWF 0x70               
    3199    C7E           086D                    MOVF 0x6D, W             
    3200    C7F           3E20                    ADDLW 0x20               
    3201    C80           0086                    MOVWF FSR1               
    3202    C81           3001                    MOVLW 0x1                
    3203    C82           0087                    MOVWF FSR1H              
    3204    C83           0870                    MOVF 0x70, W             
    3205    C84           0081                    MOVWF INDF1              
    3206    C85           3001                    MOVLW 0x1                
    3207    C86           00F0                    MOVWF 0x70               
    3208    C87           0870                    MOVF 0x70, W             
    3209    C88           07ED                    ADDWF 0x6D, F            
    3210    C89           3003                    MOVLW 0x3                
    3211    C8A           026D                    SUBWF 0x6D, W            
    3212    C8B           1C03                    BTFSS STATUS, 0x0        
    3213    C8C           2CA3                    GOTO 0x4A3               
    3214    C8D           0022                    MOVLB 0x2                
    3215    C8E           0822                    MOVF 0x22, W             
    3216    C8F           3E02                    ADDLW 0x2                
    3217    C90           00F0                    MOVWF 0x70               
    3218    C91           3000                    MOVLW 0x0                
    3219    C92           1803                    BTFSC STATUS, 0x0        
    3220    C93           3001                    MOVLW 0x1                
    3221    C94           00F1                    MOVWF 0x71               
    3222    C95           0020                    MOVLB 0x0                
    3223    C96           086D                    MOVF 0x6D, W             
    3224    C97           0670                    XORWF 0x70, W            
    3225    C98           0471                    IORWF 0x71, W            
    3226    C99           1D03                    BTFSS STATUS, 0x2        
    3227    C9A           2CA3                    GOTO 0x4A3               
    3228    C9B           111C                    BCF T2CON, 0x2           
    3229    C9C           019A                    CLRF TMR2                
    3230    C9D           0021                    MOVLB 0x1                
    3231    C9E           01B9                    CLRF 0x39                
    3232    C9F           3001                    MOVLW 0x1                
    3233    CA0           00F0                    MOVWF 0x70               
    3234    CA1           0870                    MOVF 0x70, W             
    3235    CA2           00B8                    MOVWF 0x38               
    3236    CA3           0024                    MOVLB 0x4                
    3237    CA4           1615                    BSF TMR0, 0x4            
    3238    CA5           0008                    RETURN                   
    3239    CA6           00F4                    MOVWF 0x74               
    3240    CA7           01F5                    CLRF 0x75                
    3241    CA8           0871                    MOVF 0x71, W             
    3242    CA9           0275                    SUBWF 0x75, W            
    3243    CAA           1803                    BTFSC STATUS, 0x0        
    3244    CAB           2CEF                    GOTO 0x4EF               
    3245    CAC           0021                    MOVLB 0x1                
    3246    CAD           120C                    BCF PORTA, 0x4           
    3247    CAE           3008                    MOVLW 0x8                
    3248    CAF           00F2                    MOVWF 0x72               
    3249    CB0           0872                    MOVF 0x72, W             
    3250    CB1           00F6                    MOVWF 0x76               
    3251    CB2           0876                    MOVF 0x76, W             
    3252    CB3           1903                    BTFSC STATUS, 0x2        
    3253    CB4           2CE2                    GOTO 0x4E2               
    3254    CB5           0875                    MOVF 0x75, W             
    3255    CB6           0774                    ADDWF 0x74, W            
    3256    CB7           00F2                    MOVWF 0x72               
    3257    CB8           0872                    MOVF 0x72, W             
    3258    CB9           0086                    MOVWF FSR1               
    3259    CBA           0187                    CLRF FSR1H               
    3260    CBB           3001                    MOVLW 0x1                
    3261    CBC           00F3                    MOVWF 0x73               
    3262    CBD           0876                    MOVF 0x76, W             
    3263    CBE           3EFF                    ADDLW 0xFF               
    3264    CBF           0A89                    INCF WREG, F             
    3265    CC0           2CC2                    GOTO 0x4C2               
    3266    CC1           35F3                    LSLF 0x73, F             
    3267    CC2           0B89                    DECFSZ WREG, F           
    3268    CC3           2CC1                    GOTO 0x4C1               
    3269    CC4           0873                    MOVF 0x73, W             
    3270    CC5           0501                    ANDWF INDF1, W           
    3271    CC6           1903                    BTFSC STATUS, 0x2        
    3272    CC7           2CCB                    GOTO 0x4CB               
    3273    CC8           0020                    MOVLB 0x0                
    3274    CC9           160C                    BSF PORTA, 0x4           
    3275    CCA           2CCD                    GOTO 0x4CD               
    3276    CCB           0020                    MOVLB 0x0                
    3277    CCC           120C                    BCF PORTA, 0x4           
    3278    CCD           3042                    MOVLW 0x42               
    3279    CCE           0B89                    DECFSZ WREG, F           
    3280    CCF           2CCE                    GOTO 0x4CE               
    3281    CD0           3200                    BRA 0xCD1                
    3282    CD1           0020                    MOVLB 0x0                
    3283    CD2           168C                    BSF PORTA, 0x5           
    3284    CD3           3042                    MOVLW 0x42               
    3285    CD4           0B89                    DECFSZ WREG, F           
    3286    CD5           2CD4                    GOTO 0x4D4               
    3287    CD6           3200                    BRA 0xCD7                
    3288    CD7           0020                    MOVLB 0x0                
    3289    CD8           128C                    BCF PORTA, 0x5           
    3290    CD9           3042                    MOVLW 0x42               
    3291    CDA           0B89                    DECFSZ WREG, F           
    3292    CDB           2CDA                    GOTO 0x4DA               
    3293    CDC           3200                    BRA 0xCDD                
    3294    CDD           3001                    MOVLW 0x1                
    3295    CDE           02F6                    SUBWF 0x76, F            
    3296    CDF           0876                    MOVF 0x76, W             
    3297    CE0           1D03                    BTFSS STATUS, 0x2        
    3298    CE1           2CB5                    GOTO 0x4B5               
    3299    CE2           318A                    MOVLP 0xA                
    3300    CE3           22DB                    CALL 0x2DB               
    3301    CE4           318C                    MOVLP 0xC                
    3302    CE5           3A00                    XORLW 0x0                
    3303    CE6           1903                    BTFSC STATUS, 0x2        
    3304    CE7           2CEA                    GOTO 0x4EA               
    3305    CE8           30FF                    MOVLW 0xFF               
    3306    CE9           0008                    RETURN                   
    3307    CEA           3001                    MOVLW 0x1                
    3308    CEB           00F2                    MOVWF 0x72               
    3309    CEC           0872                    MOVF 0x72, W             
    3310    CED           07F5                    ADDWF 0x75, F            
    3311    CEE           2CA8                    GOTO 0x4A8               
    3312    CEF           3000                    MOVLW 0x0                
    3313    CF0           0008                    RETURN                   
    3314    CF1           0020                    MOVLB 0x0                
    3315    CF2           1D91                    BTFSS PIR1, 0x3          
    3316    CF3           0008                    RETURN                   
    3317    CF4           0024                    MOVLB 0x4                
    3318    CF5           1914                    BTFSC 0x14, 0x2          
    3319    CF6           2D14                    GOTO 0x514               
    3320    CF7           1A94                    BTFSC 0x14, 0x5          
    3321    CF8           2D00                    GOTO 0x500               
    3322    CF9           0811                    MOVF PIR1, W             
    3323    CFA           00FD                    MOVWF 0x7D               
    3324    CFB           087D                    MOVF 0x7D, W             
    3325    CFC           0020                    MOVLB 0x0                
    3326    CFD           00E7                    MOVWF 0x67               
    3327    CFE           0024                    MOVLB 0x4                
    3328    CFF           1615                    BSF TMR0, 0x4            
    3329    D00           1E94                    BTFSS 0x14, 0x5          
    3330    D01           2D14                    GOTO 0x514               
    3331    D02           1F95                    BTFSS TMR0, 0x7          
    3332    D03           2D0C                    GOTO 0x50C               
    3333    D04           0811                    MOVF PIR1, W             
    3334    D05           00FD                    MOVWF 0x7D               
    3335    D06           087D                    MOVF 0x7D, W             
    3336    D07           0020                    MOVLB 0x0                
    3337    D08           00E7                    MOVWF 0x67               
    3338    D09           0024                    MOVLB 0x4                
    3339    D0A           1395                    BCF TMR0, 0x7            
    3340    D0B           2D12                    GOTO 0x512               
    3341    D0C           318C                    MOVLP 0xC                
    3342    D0D           245C                    CALL 0x45C               
    3343    D0E           318C                    MOVLP 0xC                
    3344    D0F           3186                    MOVLP 0x6                
    3345    D10           26F4                    CALL 0x6F4               
    3346    D11           318C                    MOVLP 0xC                
    3347    D12           0024                    MOVLB 0x4                
    3348    D13           1615                    BSF TMR0, 0x4            
    3349    D14           1D14                    BTFSS 0x14, 0x2          
    3350    D15           2D40                    GOTO 0x540               
    3351    D16           1A94                    BTFSC 0x14, 0x5          
    3352    D17           2D3D                    GOTO 0x53D               
    3353    D18           318B                    MOVLP 0xB                
    3354    D19           23B0                    CALL 0x3B0               
    3355    D1A           318C                    MOVLP 0xC                
    3356    D1B           0021                    MOVLB 0x1                
    3357    D1C           0837                    MOVF 0x37, W             
    3358    D1D           1903                    BTFSC STATUS, 0x2        
    3359    D1E           2D3D                    GOTO 0x53D               
    3360    D1F           0020                    MOVLB 0x0                
    3361    D20           086E                    MOVF 0x6E, W             
    3362    D21           1D03                    BTFSS STATUS, 0x2        
    3363    D22           2D3D                    GOTO 0x53D               
    3364    D23           0021                    MOVLB 0x1                
    3365    D24           01B7                    CLRF 0x37                
    3366    D25           01AE                    CLRF 0x2E                
    3367    D26           01B9                    CLRF 0x39                
    3368    D27           0020                    MOVLB 0x0                
    3369    D28           01E8                    CLRF 0x68                
    3370    D29           01E9                    CLRF 0x69                
    3371    D2A           3000                    MOVLW 0x0                
    3372    D2B           0269                    SUBWF 0x69, W            
    3373    D2C           30FF                    MOVLW 0xFF               
    3374    D2D           1903                    BTFSC STATUS, 0x2        
    3375    D2E           0268                    SUBWF 0x68, W            
    3376    D2F           1803                    BTFSC STATUS, 0x0        
    3377    D30           2D3C                    GOTO 0x53C               
    3378    D31           3001                    MOVLW 0x1                
    3379    D32           07E8                    ADDWF 0x68, F            
    3380    D33           3000                    MOVLW 0x0                
    3381    D34           3DE9                    ADDWFC 0x69, F           
    3382    D35           3000                    MOVLW 0x0                
    3383    D36           0269                    SUBWF 0x69, W            
    3384    D37           30FF                    MOVLW 0xFF               
    3385    D38           1903                    BTFSC STATUS, 0x2        
    3386    D39           0268                    SUBWF 0x68, W            
    3387    D3A           1C03                    BTFSS STATUS, 0x0        
    3388    D3B           2D31                    GOTO 0x531               
    3389    D3C           0001                    RESET                    
    3390    D3D           0024                    MOVLB 0x4                
    3391    D3E           1A94                    BTFSC 0x14, 0x5          
    3392    D3F           1615                    BSF TMR0, 0x4            
    3393    D40           0020                    MOVLB 0x0                
    3394    D41           1191                    BCF PIR1, 0x3            
    3395    D42           0008                    RETURN                   
    3396    D43           00F5                    MOVWF 0x75               
    3397    D44           01F6                    CLRF 0x76                
    3398    D45           01F7                    CLRF 0x77                
    3399    D46           3001                    MOVLW 0x1                
    3400    D47           0021                    MOVLB 0x1                
    3401    D48           009D                    MOVWF 0x1D               
    3402    D49           0875                    MOVF 0x75, W             
    3403    D4A           00F3                    MOVWF 0x73               
    3404    D4B           3001                    MOVLW 0x1                
    3405    D4C           35F3                    LSLF 0x73, F             
    3406    D4D           3EFF                    ADDLW 0xFF               
    3407    D4E           1D03                    BTFSS STATUS, 0x2        
    3408    D4F           2D4C                    GOTO 0x54C               
    3409    D50           3573                    LSLF 0x73, W             
    3410    D51           00F4                    MOVWF 0x74               
    3411    D52           0874                    MOVF 0x74, W             
    3412    D53           049D                    IORWF 0x1D, F            
    3413    D54           0000                    NOP                      
    3414    D55           0000                    NOP                      
    3415    D56           0000                    NOP                      
    3416    D57           0021                    MOVLB 0x1                
    3417    D58           149D                    BSF 0x1D, 0x1            
    3418    D59           0000                    NOP                      
    3419    D5A           0000                    NOP                      
    3420    D5B           0000                    NOP                      
    3421    D5C           01F6                    CLRF 0x76                
    3422    D5D           01F7                    CLRF 0x77                
    3423    D5E           3013                    MOVLW 0x13               
    3424    D5F           0277                    SUBWF 0x77, W            
    3425    D60           3088                    MOVLW 0x88               
    3426    D61           1903                    BTFSC STATUS, 0x2        
    3427    D62           0276                    SUBWF 0x76, W            
    3428    D63           1803                    BTFSC STATUS, 0x0        
    3429    D64           2D85                    GOTO 0x585               
    3430    D65           0021                    MOVLB 0x1                
    3431    D66           189D                    BTFSC 0x1D, 0x1          
    3432    D67           2D77                    GOTO 0x577               
    3433    D68           081C                    MOVF T2CON, W            
    3434    D69           00F3                    MOVWF 0x73               
    3435    D6A           0871                    MOVF 0x71, W             
    3436    D6B           0086                    MOVWF FSR1               
    3437    D6C           0187                    CLRF FSR1H               
    3438    D6D           0873                    MOVF 0x73, W             
    3439    D6E           0081                    MOVWF INDF1              
    3440    D6F           081B                    MOVF PR2, W              
    3441    D70           00F3                    MOVWF 0x73               
    3442    D71           0872                    MOVF 0x72, W             
    3443    D72           0086                    MOVWF FSR1               
    3444    D73           0187                    CLRF FSR1H               
    3445    D74           0873                    MOVF 0x73, W             
    3446    D75           0081                    MOVWF INDF1              
    3447    D76           2D85                    GOTO 0x585               
    3448    D77           0000                    NOP                      
    3449    D78           0000                    NOP                      
    3450    D79           0000                    NOP                      
    3451    D7A           3001                    MOVLW 0x1                
    3452    D7B           07F6                    ADDWF 0x76, F            
    3453    D7C           3000                    MOVLW 0x0                
    3454    D7D           3DF7                    ADDWFC 0x77, F           
    3455    D7E           3013                    MOVLW 0x13               
    3456    D7F           0277                    SUBWF 0x77, W            
    3457    D80           3088                    MOVLW 0x88               
    3458    D81           1903                    BTFSC STATUS, 0x2        
    3459    D82           0276                    SUBWF 0x76, W            
    3460    D83           1C03                    BTFSS STATUS, 0x0        
    3461    D84           2D65                    GOTO 0x565               
    3462    D85           3013                    MOVLW 0x13               
    3463    D86           0277                    SUBWF 0x77, W            
    3464    D87           3088                    MOVLW 0x88               
    3465    D88           1903                    BTFSC STATUS, 0x2        
    3466    D89           0276                    SUBWF 0x76, W            
    3467    D8A           1C03                    BTFSS STATUS, 0x0        
    3468    D8B           0008                    RETURN                   
    3469    D8C           0871                    MOVF 0x71, W             
    3470    D8D           0086                    MOVWF FSR1               
    3471    D8E           0187                    CLRF FSR1H               
    3472    D8F           0181                    CLRF INDF1               
    3473    D90           0872                    MOVF 0x72, W             
    3474    D91           0086                    MOVWF FSR1               
    3475    D92           0187                    CLRF FSR1H               
    3476    D93           0181                    CLRF INDF1               
    3477    D94           30FD                    MOVLW 0xFD               
    3478    D95           3189                    MOVLP 0x9                
    3479    D96           21EE                    CALL 0x1EE               
    3480    D97           0008                    RETURN                   
    3481    D98           0021                    MOVLB 0x1                
    3482    D99           01DC                    CLRF 0x5C                
    3483    D9A           01DD                    CLRF 0x5D                
    3484    D9B           01AC                    CLRF 0x2C                
    3485    D9C           01AD                    CLRF 0x2D                
    3486    D9D           3006                    MOVLW 0x6                
    3487    D9E           0020                    MOVLB 0x0                
    3488    D9F           00A0                    MOVWF 0x20               
    3489    DA0           0820                    MOVF 0x20, W             
    3490    DA1           0021                    MOVLB 0x1                
    3491    DA2           00BA                    MOVWF 0x3A               
    3492    DA3           3016                    MOVLW 0x16               
    3493    DA4           0020                    MOVLB 0x0                
    3494    DA5           00A0                    MOVWF 0x20               
    3495    DA6           0820                    MOVF 0x20, W             
    3496    DA7           0021                    MOVLB 0x1                
    3497    DA8           00BB                    MOVWF 0x3B               
    3498    DA9           3001                    MOVLW 0x1                
    3499    DAA           0020                    MOVLB 0x0                
    3500    DAB           00A0                    MOVWF 0x20               
    3501    DAC           0820                    MOVF 0x20, W             
    3502    DAD           0021                    MOVLB 0x1                
    3503    DAE           00BC                    MOVWF 0x3C               
    3504    DAF           082E                    MOVF 0x2E, W             
    3505    DB0           0020                    MOVLB 0x0                
    3506    DB1           00A0                    MOVWF 0x20               
    3507    DB2           0820                    MOVF 0x20, W             
    3508    DB3           0021                    MOVLB 0x1                
    3509    DB4           00BD                    MOVWF 0x3D               
    3510    DB5           083D                    MOVF 0x3D, W             
    3511    DB6           0020                    MOVLB 0x0                
    3512    DB7           00A0                    MOVWF 0x20               
    3513    DB8           01A1                    CLRF 0x21                
    3514    DB9           0021                    MOVLB 0x1                
    3515    DBA           083C                    MOVF 0x3C, W             
    3516    DBB           0020                    MOVLB 0x0                
    3517    DBC           00A2                    MOVWF 0x22               
    3518    DBD           01A3                    CLRF 0x23                
    3519    DBE           0021                    MOVLB 0x1                
    3520    DBF           083A                    MOVF 0x3A, W             
    3521    DC0           073B                    ADDWF 0x3B, W            
    3522    DC1           0020                    MOVLB 0x0                
    3523    DC2           00A4                    MOVWF 0x24               
    3524    DC3           01A5                    CLRF 0x25                
    3525    DC4           0DA5                    RLF 0x25, F              
    3526    DC5           0822                    MOVF 0x22, W             
    3527    DC6           0724                    ADDWF 0x24, W            
    3528    DC7           00A6                    MOVWF 0x26               
    3529    DC8           0823                    MOVF 0x23, W             
    3530    DC9           3D25                    ADDWFC 0x25, W           
    3531    DCA           00A7                    MOVWF 0x27               
    3532    DCB           0820                    MOVF 0x20, W             
    3533    DCC           0726                    ADDWF 0x26, W            
    3534    DCD           00A8                    MOVWF 0x28               
    3535    DCE           0821                    MOVF 0x21, W             
    3536    DCF           3D27                    ADDWFC 0x27, W           
    3537    DD0           00A9                    MOVWF 0x29               
    3538    DD1           0828                    MOVF 0x28, W             
    3539    DD2           00BD                    MOVWF 0x3D               
    3540    DD3           0829                    MOVF 0x29, W             
    3541    DD4           00BE                    MOVWF 0x3E               
    3542    DD5           083E                    MOVF 0x3E, W             
    3543    DD6           00A0                    MOVWF 0x20               
    3544    DD7           0820                    MOVF 0x20, W             
    3545    DD8           0021                    MOVLB 0x1                
    3546    DD9           00BE                    MOVWF 0x3E               
    3547    DDA           0020                    MOVLB 0x0                
    3548    DDB           083D                    MOVF 0x3D, W             
    3549    DDC           00A0                    MOVWF 0x20               
    3550    DDD           0820                    MOVF 0x20, W             
    3551    DDE           0021                    MOVLB 0x1                
    3552    DDF           00BF                    MOVWF 0x3F               
    3553    DE0           3006                    MOVLW 0x6                
    3554    DE1           0020                    MOVLB 0x0                
    3555    DE2           00A0                    MOVWF 0x20               
    3556    DE3           0820                    MOVF 0x20, W             
    3557    DE4           00EE                    MOVWF 0x6E               
    3558    DE5           01EC                    CLRF 0x6C                
    3559    DE6           3001                    MOVLW 0x1                
    3560    DE7           00A0                    MOVWF 0x20               
    3561    DE8           0820                    MOVF 0x20, W             
    3562    DE9           00EF                    MOVWF 0x6F               
    3563    DEA           0008                    RETURN                   
    3564    DEB           3005                    MOVLW 0x5                
    3565    DEC           00A0                    MOVWF 0x20               
    3566    DED           0820                    MOVF 0x20, W             
    3567    DEE           0021                    MOVLB 0x1                
    3568    DEF           00BA                    MOVWF 0x3A               
    3569    DF0           3017                    MOVLW 0x17               
    3570    DF1           0020                    MOVLB 0x0                
    3571    DF2           00A0                    MOVWF 0x20               
    3572    DF3           0820                    MOVF 0x20, W             
    3573    DF4           0021                    MOVLB 0x1                
    3574    DF5           00BB                    MOVWF 0x3B               
    3575    DF6           3089                    MOVLW 0x89               
    3576    DF7           0020                    MOVLB 0x0                
    3577    DF8           00A0                    MOVWF 0x20               
    3578    DF9           0820                    MOVF 0x20, W             
    3579    DFA           0021                    MOVLB 0x1                
    3580    DFB           00BC                    MOVWF 0x3C               
    3581    DFC           083C                    MOVF 0x3C, W             
    3582    DFD           0020                    MOVLB 0x0                
    3583    DFE           00A0                    MOVWF 0x20               
    3584    DFF           01A1                    CLRF 0x21                
    3585    E00           0021                    MOVLB 0x1                
    3586    E01           083A                    MOVF 0x3A, W             
    3587    E02           073B                    ADDWF 0x3B, W            
    3588    E03           0020                    MOVLB 0x0                
    3589    E04           00A2                    MOVWF 0x22               
    3590    E05           01A3                    CLRF 0x23                
    3591    E06           0DA3                    RLF 0x23, F              
    3592    E07           0820                    MOVF 0x20, W             
    3593    E08           0722                    ADDWF 0x22, W            
    3594    E09           00A4                    MOVWF 0x24               
    3595    E0A           0821                    MOVF 0x21, W             
    3596    E0B           3D23                    ADDWFC 0x23, W           
    3597    E0C           00A5                    MOVWF 0x25               
    3598    E0D           0824                    MOVF 0x24, W             
    3599    E0E           00BD                    MOVWF 0x3D               
    3600    E0F           0825                    MOVF 0x25, W             
    3601    E10           00BE                    MOVWF 0x3E               
    3602    E11           083E                    MOVF 0x3E, W             
    3603    E12           00A0                    MOVWF 0x20               
    3604    E13           0820                    MOVF 0x20, W             
    3605    E14           0021                    MOVLB 0x1                
    3606    E15           00BD                    MOVWF 0x3D               
    3607    E16           0020                    MOVLB 0x0                
    3608    E17           083D                    MOVF 0x3D, W             
    3609    E18           00A0                    MOVWF 0x20               
    3610    E19           0820                    MOVF 0x20, W             
    3611    E1A           0021                    MOVLB 0x1                
    3612    E1B           00BE                    MOVWF 0x3E               
    3613    E1C           3005                    MOVLW 0x5                
    3614    E1D           0020                    MOVLB 0x0                
    3615    E1E           00A0                    MOVWF 0x20               
    3616    E1F           0820                    MOVF 0x20, W             
    3617    E20           00EE                    MOVWF 0x6E               
    3618    E21           01EC                    CLRF 0x6C                
    3619    E22           3001                    MOVLW 0x1                
    3620    E23           00A0                    MOVWF 0x20               
    3621    E24           0820                    MOVF 0x20, W             
    3622    E25           00EF                    MOVWF 0x6F               
    3623    E26           0008                    RETURN                   
    3624    E27           3007                    MOVLW 0x7                
    3625    E28           00A0                    MOVWF 0x20               
    3626    E29           0820                    MOVF 0x20, W             
    3627    E2A           0021                    MOVLB 0x1                
    3628    E2B           00BA                    MOVWF 0x3A               
    3629    E2C           303A                    MOVLW 0x3A               
    3630    E2D           0020                    MOVLB 0x0                
    3631    E2E           00A0                    MOVWF 0x20               
    3632    E2F           0820                    MOVF 0x20, W             
    3633    E30           0021                    MOVLB 0x1                
    3634    E31           00BB                    MOVWF 0x3B               
    3635    E32           3001                    MOVLW 0x1                
    3636    E33           0020                    MOVLB 0x0                
    3637    E34           00A0                    MOVWF 0x20               
    3638    E35           0820                    MOVF 0x20, W             
    3639    E36           0021                    MOVLB 0x1                
    3640    E37           00BC                    MOVWF 0x3C               
    3641    E38           30BD                    MOVLW 0xBD               
    3642    E39           0020                    MOVLB 0x0                
    3643    E3A           00A0                    MOVWF 0x20               
    3644    E3B           0820                    MOVF 0x20, W             
    3645    E3C           00F1                    MOVWF 0x71               
    3646    E3D           30BE                    MOVLW 0xBE               
    3647    E3E           00A1                    MOVWF 0x21               
    3648    E3F           0821                    MOVF 0x21, W             
    3649    E40           00F2                    MOVWF 0x72               
    3650    E41           3006                    MOVLW 0x6                
    3651    E42           318D                    MOVLP 0xD                
    3652    E43           2543                    CALL 0x543               
    3653    E44           318D                    MOVLP 0xD                
    3654    E45           0021                    MOVLB 0x1                
    3655    E46           083E                    MOVF 0x3E, W             
    3656    E47           0020                    MOVLB 0x0                
    3657    E48           00A0                    MOVWF 0x20               
    3658    E49           01A1                    CLRF 0x21                
    3659    E4A           0021                    MOVLB 0x1                
    3660    E4B           083D                    MOVF 0x3D, W             
    3661    E4C           0020                    MOVLB 0x0                
    3662    E4D           00A2                    MOVWF 0x22               
    3663    E4E           01A3                    CLRF 0x23                
    3664    E4F           0021                    MOVLB 0x1                
    3665    E50           083C                    MOVF 0x3C, W             
    3666    E51           0020                    MOVLB 0x0                
    3667    E52           00A4                    MOVWF 0x24               
    3668    E53           01A5                    CLRF 0x25                
    3669    E54           0021                    MOVLB 0x1                
    3670    E55           083A                    MOVF 0x3A, W             
    3671    E56           073B                    ADDWF 0x3B, W            
    3672    E57           0020                    MOVLB 0x0                
    3673    E58           00A6                    MOVWF 0x26               
    3674    E59           01A7                    CLRF 0x27                
    3675    E5A           0DA7                    RLF 0x27, F              
    3676    E5B           0824                    MOVF 0x24, W             
    3677    E5C           0726                    ADDWF 0x26, W            
    3678    E5D           00A8                    MOVWF 0x28               
    3679    E5E           0825                    MOVF 0x25, W             
    3680    E5F           3D27                    ADDWFC 0x27, W           
    3681    E60           00A9                    MOVWF 0x29               
    3682    E61           0822                    MOVF 0x22, W             
    3683    E62           0728                    ADDWF 0x28, W            
    3684    E63           00AA                    MOVWF 0x2A               
    3685    E64           0823                    MOVF 0x23, W             
    3686    E65           3D29                    ADDWFC 0x29, W           
    3687    E66           00AB                    MOVWF 0x2B               
    3688    E67           0820                    MOVF 0x20, W             
    3689    E68           072A                    ADDWF 0x2A, W            
    3690    E69           00AC                    MOVWF 0x2C               
    3691    E6A           0821                    MOVF 0x21, W             
    3692    E6B           3D2B                    ADDWFC 0x2B, W           
    3693    E6C           00AD                    MOVWF 0x2D               
    3694    E6D           082C                    MOVF 0x2C, W             
    3695    E6E           00BD                    MOVWF 0x3D               
    3696    E6F           082D                    MOVF 0x2D, W             
    3697    E70           00BE                    MOVWF 0x3E               
    3698    E71           083E                    MOVF 0x3E, W             
    3699    E72           00A0                    MOVWF 0x20               
    3700    E73           0820                    MOVF 0x20, W             
    3701    E74           0021                    MOVLB 0x1                
    3702    E75           00BF                    MOVWF 0x3F               
    3703    E76           0020                    MOVLB 0x0                
    3704    E77           083D                    MOVF 0x3D, W             
    3705    E78           00A0                    MOVWF 0x20               
    3706    E79           0820                    MOVF 0x20, W             
    3707    E7A           0021                    MOVLB 0x1                
    3708    E7B           00C0                    MOVWF 0x40               
    3709    E7C           3007                    MOVLW 0x7                
    3710    E7D           0020                    MOVLB 0x0                
    3711    E7E           00A0                    MOVWF 0x20               
    3712    E7F           0820                    MOVF 0x20, W             
    3713    E80           00EE                    MOVWF 0x6E               
    3714    E81           01EC                    CLRF 0x6C                
    3715    E82           3001                    MOVLW 0x1                
    3716    E83           00A0                    MOVWF 0x20               
    3717    E84           0820                    MOVF 0x20, W             
    3718    E85           00EF                    MOVWF 0x6F               
    3719    E86           0008                    RETURN                   
    3720    E87           083C                    MOVF 0x3C, W             
    3721    E88           0086                    MOVWF FSR1               
    3722    E89           0187                    CLRF FSR1H               
    3723    E8A           0801                    MOVF INDF1, W            
    3724    E8B           3EFB                    ADDLW 0xFB               
    3725    E8C           00BA                    MOVWF 0x3A               
    3726    E8D           30FF                    MOVLW 0xFF               
    3727    E8E           1803                    BTFSC STATUS, 0x0        
    3728    E8F           3000                    MOVLW 0x0                
    3729    E90           00BB                    MOVWF 0x3B               
    3730    E91           083C                    MOVF 0x3C, W             
    3731    E92           3E02                    ADDLW 0x2                
    3732    E93           0086                    MOVWF FSR1               
    3733    E94           0187                    CLRF FSR1H               
    3734    E95           0801                    MOVF INDF1, W            
    3735    E96           00A0                    MOVWF 0x20               
    3736    E97           01A1                    CLRF 0x21                
    3737    E98           0820                    MOVF 0x20, W             
    3738    E99           00B6                    MOVWF 0x36               
    3739    E9A           0821                    MOVF 0x21, W             
    3740    E9B           00B7                    MOVWF 0x37               
    3741    E9C           083C                    MOVF 0x3C, W             
    3742    E9D           3E03                    ADDLW 0x3                
    3743    E9E           0086                    MOVWF FSR1               
    3744    E9F           0187                    CLRF FSR1H               
    3745    EA0           0801                    MOVF INDF1, W            
    3746    EA1           00A0                    MOVWF 0x20               
    3747    EA2           01A1                    CLRF 0x21                
    3748    EA3           0820                    MOVF 0x20, W             
    3749    EA4           00B4                    MOVWF 0x34               
    3750    EA5           0821                    MOVF 0x21, W             
    3751    EA6           00B5                    MOVWF 0x35               
    3752    EA7           303B                    MOVLW 0x3B               
    3753    EA8           00A0                    MOVWF 0x20               
    3754    EA9           0820                    MOVF 0x20, W             
    3755    EAA           0021                    MOVLB 0x1                
    3756    EAB           00BA                    MOVWF 0x3A               
    3757    EAC           0020                    MOVLB 0x0                
    3758    EAD           083C                    MOVF 0x3C, W             
    3759    EAE           3E03                    ADDLW 0x3                
    3760    EAF           00A0                    MOVWF 0x20               
    3761    EB0           0820                    MOVF 0x20, W             
    3762    EB1           00F7                    MOVWF 0x77               
    3763    EB2           083A                    MOVF 0x3A, W             
    3764    EB3           00A1                    MOVWF 0x21               
    3765    EB4           0821                    MOVF 0x21, W             
    3766    EB5           00F8                    MOVWF 0x78               
    3767    EB6           0836                    MOVF 0x36, W             
    3768    EB7           318A                    MOVLP 0xA                
    3769    EB8           22FF                    CALL 0x2FF               
    3770    EB9           318D                    MOVLP 0xD                
    3771    EBA           3A00                    XORLW 0x0                
    3772    EBB           1D03                    BTFSS STATUS, 0x2        
    3773    EBC           2EC4                    GOTO 0x6C4               
    3774    EBD           3001                    MOVLW 0x1                
    3775    EBE           0020                    MOVLB 0x0                
    3776    EBF           00A0                    MOVWF 0x20               
    3777    EC0           0820                    MOVF 0x20, W             
    3778    EC1           0021                    MOVLB 0x1                
    3779    EC2           00BB                    MOVWF 0x3B               
    3780    EC3           2EC6                    GOTO 0x6C6               
    3781    EC4           0021                    MOVLB 0x1                
    3782    EC5           01BB                    CLRF 0x3B                
    3783    EC6           3002                    MOVLW 0x2                
    3784    EC7           0020                    MOVLB 0x0                
    3785    EC8           00A0                    MOVWF 0x20               
    3786    EC9           0820                    MOVF 0x20, W             
    3787    ECA           00EE                    MOVWF 0x6E               
    3788    ECB           01EC                    CLRF 0x6C                
    3789    ECC           3001                    MOVLW 0x1                
    3790    ECD           00A0                    MOVWF 0x20               
    3791    ECE           0820                    MOVF 0x20, W             
    3792    ECF           0021                    MOVLB 0x1                
    3793    ED0           00B2                    MOVWF 0x32               
    3794    ED1           3001                    MOVLW 0x1                
    3795    ED2           0020                    MOVLB 0x0                
    3796    ED3           00A0                    MOVWF 0x20               
    3797    ED4           0820                    MOVF 0x20, W             
    3798    ED5           00EF                    MOVWF 0x6F               
    3799    ED6           0008                    RETURN                   
    3800    ED7           083C                    MOVF 0x3C, W             
    3801    ED8           3E03                    ADDLW 0x3                
    3802    ED9           0086                    MOVWF FSR1               
    3803    EDA           0187                    CLRF FSR1H               
    3804    EDB           0801                    MOVF INDF1, W            
    3805    EDC           00A0                    MOVWF 0x20               
    3806    EDD           01A1                    CLRF 0x21                
    3807    EDE           0820                    MOVF 0x20, W             
    3808    EDF           00BA                    MOVWF 0x3A               
    3809    EE0           0821                    MOVF 0x21, W             
    3810    EE1           00BB                    MOVWF 0x3B               
    3811    EE2           083C                    MOVF 0x3C, W             
    3812    EE3           3E02                    ADDLW 0x2                
    3813    EE4           0086                    MOVWF FSR1               
    3814    EE5           0187                    CLRF FSR1H               
    3815    EE6           0801                    MOVF INDF1, W            
    3816    EE7           00A0                    MOVWF 0x20               
    3817    EE8           01A1                    CLRF 0x21                
    3818    EE9           0820                    MOVF 0x20, W             
    3819    EEA           00B6                    MOVWF 0x36               
    3820    EEB           0821                    MOVF 0x21, W             
    3821    EEC           00B7                    MOVWF 0x37               
    3822    EED           083A                    MOVF 0x3A, W             
    3823    EEE           3E05                    ADDLW 0x5                
    3824    EEF           00A0                    MOVWF 0x20               
    3825    EF0           0820                    MOVF 0x20, W             
    3826    EF1           0021                    MOVLB 0x1                
    3827    EF2           00BA                    MOVWF 0x3A               
    3828    EF3           303C                    MOVLW 0x3C               
    3829    EF4           0020                    MOVLB 0x0                
    3830    EF5           00A0                    MOVWF 0x20               
    3831    EF6           0820                    MOVF 0x20, W             
    3832    EF7           0021                    MOVLB 0x1                
    3833    EF8           00BB                    MOVWF 0x3B               
    3834    EF9           30BD                    MOVLW 0xBD               
    3835    EFA           0020                    MOVLB 0x0                
    3836    EFB           00A0                    MOVWF 0x20               
    3837    EFC           0820                    MOVF 0x20, W             
    3838    EFD           00F7                    MOVWF 0x77               
    3839    EFE           303A                    MOVLW 0x3A               
    3840    EFF           00A1                    MOVWF 0x21               
    3841    F00           0821                    MOVF 0x21, W             
    3842    F01           00F8                    MOVWF 0x78               
    3843    F02           0836                    MOVF 0x36, W             
    3844    F03           318B                    MOVLP 0xB                
    3845    F04           23E3                    CALL 0x3E3               
    3846    F05           318D                    MOVLP 0xD                
    3847    F06           3A00                    XORLW 0x0                
    3848    F07           1903                    BTFSC STATUS, 0x2        
    3849    F08           2F0C                    GOTO 0x70C               
    3850    F09           0021                    MOVLB 0x1                
    3851    F0A           01BC                    CLRF 0x3C                
    3852    F0B           2F12                    GOTO 0x712               
    3853    F0C           3001                    MOVLW 0x1                
    3854    F0D           0020                    MOVLB 0x0                
    3855    F0E           00A0                    MOVWF 0x20               
    3856    F0F           0820                    MOVF 0x20, W             
    3857    F10           0021                    MOVLB 0x1                
    3858    F11           00BC                    MOVWF 0x3C               
    3859    F12           083C                    MOVF 0x3C, W             
    3860    F13           0020                    MOVLB 0x0                
    3861    F14           00A0                    MOVWF 0x20               
    3862    F15           01A1                    CLRF 0x21                
    3863    F16           0021                    MOVLB 0x1                
    3864    F17           083A                    MOVF 0x3A, W             
    3865    F18           073B                    ADDWF 0x3B, W            
    3866    F19           0020                    MOVLB 0x0                
    3867    F1A           00A2                    MOVWF 0x22               
    3868    F1B           01A3                    CLRF 0x23                
    3869    F1C           0DA3                    RLF 0x23, F              
    3870    F1D           0820                    MOVF 0x20, W             
    3871    F1E           0722                    ADDWF 0x22, W            
    3872    F1F           00A4                    MOVWF 0x24               
    3873    F20           0821                    MOVF 0x21, W             
    3874    F21           3D23                    ADDWFC 0x23, W           
    3875    F22           00A5                    MOVWF 0x25               
    3876    F23           0824                    MOVF 0x24, W             
    3877    F24           00BD                    MOVWF 0x3D               
    3878    F25           0825                    MOVF 0x25, W             
    3879    F26           00BE                    MOVWF 0x3E               
    3880    F27           01B8                    CLRF 0x38                
    3881    F28           01B9                    CLRF 0x39                
    3882    F29           083B                    MOVF 0x3B, W             
    3883    F2A           0239                    SUBWF 0x39, W            
    3884    F2B           1D03                    BTFSS STATUS, 0x2        
    3885    F2C           2F2F                    GOTO 0x72F               
    3886    F2D           083A                    MOVF 0x3A, W             
    3887    F2E           0238                    SUBWF 0x38, W            
    3888    F2F           1803                    BTFSC STATUS, 0x0        
    3889    F30           2F42                    GOTO 0x742               
    3890    F31           0838                    MOVF 0x38, W             
    3891    F32           3E03                    ADDLW 0x3                
    3892    F33           3EBA                    ADDLW 0xBA               
    3893    F34           0086                    MOVWF FSR1               
    3894    F35           0187                    CLRF FSR1H               
    3895    F36           0801                    MOVF INDF1, W            
    3896    F37           00A0                    MOVWF 0x20               
    3897    F38           01A1                    CLRF 0x21                
    3898    F39           0820                    MOVF 0x20, W             
    3899    F3A           07BD                    ADDWF 0x3D, F            
    3900    F3B           0821                    MOVF 0x21, W             
    3901    F3C           3DBE                    ADDWFC 0x3E, F           
    3902    F3D           3001                    MOVLW 0x1                
    3903    F3E           07B8                    ADDWF 0x38, F            
    3904    F3F           3000                    MOVLW 0x0                
    3905    F40           3DB9                    ADDWFC 0x39, F           
    3906    F41           2F29                    GOTO 0x729               
    3907    F42           083E                    MOVF 0x3E, W             
    3908    F43           00A0                    MOVWF 0x20               
    3909    F44           083A                    MOVF 0x3A, W             
    3910    F45           3E03                    ADDLW 0x3                
    3911    F46           3EBA                    ADDLW 0xBA               
    3912    F47           0086                    MOVWF FSR1               
    3913    F48           0187                    CLRF FSR1H               
    3914    F49           0820                    MOVF 0x20, W             
    3915    F4A           0081                    MOVWF INDF1              
    3916    F4B           083D                    MOVF 0x3D, W             
    3917    F4C           00A0                    MOVWF 0x20               
    3918    F4D           083A                    MOVF 0x3A, W             
    3919    F4E           3E04                    ADDLW 0x4                
    3920    F4F           3EBA                    ADDLW 0xBA               
    3921    F50           0086                    MOVWF FSR1               
    3922    F51           0187                    CLRF FSR1H               
    3923    F52           0820                    MOVF 0x20, W             
    3924    F53           0081                    MOVWF INDF1              
    3925    F54           0021                    MOVLB 0x1                
    3926    F55           083A                    MOVF 0x3A, W             
    3927    F56           0020                    MOVLB 0x0                
    3928    F57           00A0                    MOVWF 0x20               
    3929    F58           0820                    MOVF 0x20, W             
    3930    F59           00EE                    MOVWF 0x6E               
    3931    F5A           01EC                    CLRF 0x6C                
    3932    F5B           3001                    MOVLW 0x1                
    3933    F5C           00A0                    MOVWF 0x20               
    3934    F5D           0820                    MOVF 0x20, W             
    3935    F5E           00EF                    MOVWF 0x6F               
    3936    F5F           0008                    RETURN                   
    3937    F60           0A3C                    INCF 0x3C, W             
    3938    F61           0086                    MOVWF FSR1               
    3939    F62           0187                    CLRF FSR1H               
    3940    F63           0801                    MOVF INDF1, W            
    3941    F64           3A07                    XORLW 0x7                
    3942    F65           1903                    BTFSC STATUS, 0x2        
    3943    F66           2F7B                    GOTO 0x77B               
    3944    F67           3A12                    XORLW 0x12               
    3945    F68           1903                    BTFSC STATUS, 0x2        
    3946    F69           2F7D                    GOTO 0x77D               
    3947    F6A           3A03                    XORLW 0x3                
    3948    F6B           1903                    BTFSC STATUS, 0x2        
    3949    F6C           2D98                    GOTO 0x598               
    3950    F6D           3A01                    XORLW 0x1                
    3951    F6E           1903                    BTFSC STATUS, 0x2        
    3952    F6F           2DEB                    GOTO 0x5EB               
    3953    F70           3A2D                    XORLW 0x2D               
    3954    F71           1903                    BTFSC STATUS, 0x2        
    3955    F72           2E27                    GOTO 0x627               
    3956    F73           3A01                    XORLW 0x1                
    3957    F74           1903                    BTFSC STATUS, 0x2        
    3958    F75           2E87                    GOTO 0x687               
    3959    F76           3A07                    XORLW 0x7                
    3960    F77           1903                    BTFSC STATUS, 0x2        
    3961    F78           2ED7                    GOTO 0x6D7               
    3962    F79           2F7A                    GOTO 0x77A               
    3963    F7A           0008                    RETURN                   
    3964    F7B           318B                    MOVLP 0xB                
    3965    F7C           2B95                    GOTO 0x395               
    3966    F7D           318A                    MOVLP 0xA                
    3967    F7E           2AB7                    GOTO 0x2B7               
    3968    F7F           3FFF                    MOVWI -1[FSR1]           
    3969    F80           3FFF                    MOVWI -1[FSR1]           
    3970    F81           3FFF                    MOVWI -1[FSR1]           
    3971    F82           3FFF                    MOVWI -1[FSR1]           
    3972    F83           3FFF                    MOVWI -1[FSR1]           
    3973    F84           3FFF                    MOVWI -1[FSR1]           
    3974    F85           3FFF                    MOVWI -1[FSR1]           
    3975    F86           3FFF                    MOVWI -1[FSR1]           
    3976    F87           3FFF                    MOVWI -1[FSR1]           
    3977    F88           3FFF                    MOVWI -1[FSR1]           
    3978    F89           3FFF                    MOVWI -1[FSR1]           
    3979    F8A           3FFF                    MOVWI -1[FSR1]           
    3980    F8B           3FFF                    MOVWI -1[FSR1]           
    3981    F8C           3FFF                    MOVWI -1[FSR1]           
    3982    F8D           3FFF                    MOVWI -1[FSR1]           
    3983    F8E           3FFF                    MOVWI -1[FSR1]           
    3984    F8F           3FFF                    MOVWI -1[FSR1]           
    3985    F90           3FFF                    MOVWI -1[FSR1]           
    3986    F91           3FFF                    MOVWI -1[FSR1]           
    3987    F92           3FFF                    MOVWI -1[FSR1]           
    3988    F93           3FFF                    MOVWI -1[FSR1]           
    3989    F94           3FFF                    MOVWI -1[FSR1]           
    3990    F95           3FFF                    MOVWI -1[FSR1]           
    3991    F96           3FFF                    MOVWI -1[FSR1]           
    3992    F97           3FFF                    MOVWI -1[FSR1]           
    3993    F98           3FFF                    MOVWI -1[FSR1]           
    3994    F99           3FFF                    MOVWI -1[FSR1]           
    3995    F9A           3FFF                    MOVWI -1[FSR1]           
    3996    F9B           3FFF                    MOVWI -1[FSR1]           
    3997    F9C           3FFF                    MOVWI -1[FSR1]           
    3998    F9D           3FFF                    MOVWI -1[FSR1]           
    3999    F9E           3FFF                    MOVWI -1[FSR1]           
    4000    F9F           3FFF                    MOVWI -1[FSR1]           
    4001    FA0           3FFF                    MOVWI -1[FSR1]           
    4002    FA1           3FFF                    MOVWI -1[FSR1]           
    4003    FA2           3FFF                    MOVWI -1[FSR1]           
    4004    FA3           3FFF                    MOVWI -1[FSR1]           
    4005    FA4           3FFF                    MOVWI -1[FSR1]           
    4006    FA5           3FFF                    MOVWI -1[FSR1]           
    4007    FA6           3FFF                    MOVWI -1[FSR1]           
    4008    FA7           3FFF                    MOVWI -1[FSR1]           
    4009    FA8           3FFF                    MOVWI -1[FSR1]           
    4010    FA9           3FFF                    MOVWI -1[FSR1]           
    4011    FAA           3FFF                    MOVWI -1[FSR1]           
    4012    FAB           3FFF                    MOVWI -1[FSR1]           
    4013    FAC           3FFF                    MOVWI -1[FSR1]           
    4014    FAD           3FFF                    MOVWI -1[FSR1]           
    4015    FAE           3FFF                    MOVWI -1[FSR1]           
    4016    FAF           3FFF                    MOVWI -1[FSR1]           
    4017    FB0           3FFF                    MOVWI -1[FSR1]           
    4018    FB1           3FFF                    MOVWI -1[FSR1]           
    4019    FB2           3FFF                    MOVWI -1[FSR1]           
    4020    FB3           3FFF                    MOVWI -1[FSR1]           
    4021    FB4           3FFF                    MOVWI -1[FSR1]           
    4022    FB5           3FFF                    MOVWI -1[FSR1]           
    4023    FB6           3FFF                    MOVWI -1[FSR1]           
    4024    FB7           3FFF                    MOVWI -1[FSR1]           
    4025    FB8           3FFF                    MOVWI -1[FSR1]           
    4026    FB9           3FFF                    MOVWI -1[FSR1]           
    4027    FBA           3FFF                    MOVWI -1[FSR1]           
    4028    FBB           3FFF                    MOVWI -1[FSR1]           
    4029    FBC           3FFF                    MOVWI -1[FSR1]           
    4030    FBD           3FFF                    MOVWI -1[FSR1]           
    4031    FBE           3FFF                    MOVWI -1[FSR1]           
    4032    FBF           3FFF                    MOVWI -1[FSR1]           
    4033    FC0           3FFF                    MOVWI -1[FSR1]           
    4034    FC1           3FFF                    MOVWI -1[FSR1]           
    4035    FC2           3FFF                    MOVWI -1[FSR1]           
    4036    FC3           3FFF                    MOVWI -1[FSR1]           
    4037    FC4           3FFF                    MOVWI -1[FSR1]           
    4038    FC5           3FFF                    MOVWI -1[FSR1]           
    4039    FC6           3FFF                    MOVWI -1[FSR1]           
    4040    FC7           3FFF                    MOVWI -1[FSR1]           
    4041    FC8           3FFF                    MOVWI -1[FSR1]           
    4042    FC9           3FFF                    MOVWI -1[FSR1]           
    4043    FCA           3FFF                    MOVWI -1[FSR1]           
    4044    FCB           3FFF                    MOVWI -1[FSR1]           
    4045    FCC           3FFF                    MOVWI -1[FSR1]           
    4046    FCD           3FFF                    MOVWI -1[FSR1]           
    4047    FCE           3FFF                    MOVWI -1[FSR1]           
    4048    FCF           3FFF                    MOVWI -1[FSR1]           
    4049    FD0           3FFF                    MOVWI -1[FSR1]           
    4050    FD1           3FFF                    MOVWI -1[FSR1]           
    4051    FD2           3FFF                    MOVWI -1[FSR1]           
    4052    FD3           3FFF                    MOVWI -1[FSR1]           
    4053    FD4           3FFF                    MOVWI -1[FSR1]           
    4054    FD5           3FFF                    MOVWI -1[FSR1]           
    4055    FD6           3FFF                    MOVWI -1[FSR1]           
    4056    FD7           3FFF                    MOVWI -1[FSR1]           
    4057    FD8           3FFF                    MOVWI -1[FSR1]           
    4058    FD9           3FFF                    MOVWI -1[FSR1]           
    4059    FDA           3FFF                    MOVWI -1[FSR1]           
    4060    FDB           3FFF                    MOVWI -1[FSR1]           
    4061    FDC           3FFF                    MOVWI -1[FSR1]           
    4062    FDD           3FFF                    MOVWI -1[FSR1]           
    4063    FDE           3FFF                    MOVWI -1[FSR1]           
    4064    FDF           3FFF                    MOVWI -1[FSR1]           
    4065    FE0           3FFF                    MOVWI -1[FSR1]           
    4066    FE1           3FFF                    MOVWI -1[FSR1]           
    4067    FE2           3FFF                    MOVWI -1[FSR1]           
    4068    FE3           3FFF                    MOVWI -1[FSR1]           
    4069    FE4           3FFF                    MOVWI -1[FSR1]           
    4070    FE5           3FFF                    MOVWI -1[FSR1]           
    4071    FE6           3FFF                    MOVWI -1[FSR1]           
    4072    FE7           3FFF                    MOVWI -1[FSR1]           
    4073    FE8           3FFF                    MOVWI -1[FSR1]           
    4074    FE9           3FFF                    MOVWI -1[FSR1]           
    4075    FEA           3FFF                    MOVWI -1[FSR1]           
    4076    FEB           3FFF                    MOVWI -1[FSR1]           
    4077    FEC           3FFF                    MOVWI -1[FSR1]           
    4078    FED           3FFF                    MOVWI -1[FSR1]           
    4079    FEE           3FFF                    MOVWI -1[FSR1]           
    4080    FEF           3FFF                    MOVWI -1[FSR1]           
    4081    FF0           3FFF                    MOVWI -1[FSR1]           
    4082    FF1           3FFF                    MOVWI -1[FSR1]           
    4083    FF2           3FFF                    MOVWI -1[FSR1]           
    4084    FF3           3FFF                    MOVWI -1[FSR1]           
    4085    FF4           3FFF                    MOVWI -1[FSR1]           
    4086    FF5           3FFF                    MOVWI -1[FSR1]           
    4087    FF6           3FFF                    MOVWI -1[FSR1]           
    4088    FF7           3FFF                    MOVWI -1[FSR1]           
    4089    FF8           3FFF                    MOVWI -1[FSR1]           
    4090    FF9           3FFF                    MOVWI -1[FSR1]           
    4091    FFA           3FFF                    MOVWI -1[FSR1]           
    4092    FFB           3FFF                    MOVWI -1[FSR1]           
    4093    FFC           3FFF                    MOVWI -1[FSR1]           
    4094    FFD           3FFF                    MOVWI -1[FSR1]           
    4095    FFE           3FFF                    MOVWI -1[FSR1]           
    4096    FFF           3FFF                    MOVWI -1[FSR1]           
